(lp0
(lp1
V2007:10:19 07:58:31
p2
aV0022
p3
aa(lp4
V2007:10:26 05:42:35
p5
aV0021
p6
aa(lp7
V2007:10:26 05:42:44
p8
aV0020
p9
aa(lp10
V2007:10:26 06:05:56
p11
aV0019
p12
aa(lp13
V2007:10:26 06:18:58
p14
aV0018
p15
aa(lp16
V2007:10:26 06:20:55
p17
aV0016
p18
aa(lp19
g17
aV0017
p20
aa(lp21
V2007:10:26 10:58:34
p22
aV0014
p23
aa(lp24
g22
aV0015
p25
aa(lp26
V2007:10:26 17:42:23
p27
aV0000
p28
aa(lp29
g27
aV0001
p30
aa(lp31
g27
aV0002
p32
aa(lp33
g27
aV0003
p34
aa(lp35
g27
aV0004
p36
aa(lp37
g27
aV0005
p38
aa(lp39
V2007:10:26 17:52:46
p40
aV0013
p41
aa(lp42
V2007:10:26 17:55:30
p43
aV0012
p44
aa(lp45
V2007:10:26 18:01:51
p46
aV0011
p47
aa(lp48
V2007:10:26 18:02:17
p49
aV0010
p50
aa(lp51
V2007:10:26 18:06:27
p52
aV0009
p53
aa(lp54
V2007:10:26 18:07:03
p55
aV0008
p56
aa(lp57
V2007:10:28 19:29:55
p58
aV0006
p59
aa(lp60
g58
aV0007
p61
aa(lp62
V2007:11:02 12:26:09
p63
aV0032
p64
aa(lp65
V2007:11:02 12:26:17
p66
aV0048
p67
aa(lp68
V2007:11:02 12:26:25
p69
aV0031
p70
aa(lp71
V2007:11:02 12:26:31
p72
aV0047
p73
aa(lp74
V2007:11:02 17:30:47
p75
aV0046
p76
aa(lp77
V2007:11:02 17:31:02
p78
aV0030
p79
aa(lp80
V2007:11:02 17:33:20
p81
aV0029
p82
aa(lp83
V2007:11:02 18:49:14
p84
aV0028
p85
aa(lp86
V2007:11:02 18:49:23
p87
aV0027
p88
aa(lp89
V2007:11:04 20:47:18
p90
aV0037
p91
aa(lp92
g90
aV0038
p93
aa(lp94
g90
aV0039
p95
aa(lp96
g90
aV0040
p97
aa(lp98
g90
aV0041
p99
aa(lp100
g90
aV0042
p101
aa(lp102
g90
aV0043
p103
aa(lp104
g90
aV0044
p105
aa(lp106
g90
aV0045
p107
aa(lp108
V2007:11:05 08:04:51
p109
aV0035
p110
aa(lp111
V2007:11:05 08:04:51
p112
aV0036
p113
aa(lp114
V2007:11:05 08:04:51
p115
aV0050
p116
aa(lp117
V2007:11:05 08:04:51
p118
aV0051
p119
aa(lp120
V2007:11:05 08:04:52
p121
aV0033
p122
aa(lp123
V2007:11:05 08:04:52
p124
aV0034
p125
aa(lp126
V2007:11:05 08:04:52
p127
aV0049
p128
aa(lp129
V2007:11:05 08:04:53
p130
aV0023
p131
aa(lp132
g130
aV0024
p133
aa(lp134
V2007:11:05 08:04:53
p135
aV0025
p136
aa(lp137
V2007:11:05 08:04:53
p138
aV0026
p139
aa(lp140
V2007:11:09 16:27:53
p141
aV0061
p142
aa(lp143
V2007:11:09 16:28:14
p144
aV0060
p145
aa(lp146
V2007:11:09 16:28:42
p147
aV0052
p148
aa(lp149
g147
aV0053
p150
aa(lp151
g147
aV0054
p152
aa(lp153
g147
aV0055
p154
aa(lp155
g147
aV0056
p156
aa(lp157
g147
aV0057
p158
aa(lp159
g147
aV0058
p160
aa(lp161
g147
aV0059
p162
aa(lp163
V2007:11:10 19:21:06
p164
aV0063
p165
aa(lp166
V2007:11:10 19:21:06
p167
aV0064
p168
aa(lp169
V2007:11:10 19:21:07
p170
aV0062
p171
aa(lp172
V2007:11:16 19:05:22
p173
aV0068
p174
aa(lp175
V2007:11:16 19:05:35
p176
aV0067
p177
aa(lp178
V2007:11:16 19:05:52
p179
aV0066
p180
aa(lp181
V2007:11:16 19:06:15
p182
aV0065
p183
aa(lp184
V2007:11:24 11:03:56
p185
aV0074
p186
aa(lp187
V2007:11:24 11:04:05
p188
aV0073
p189
aa(lp190
V2007:11:24 11:04:13
p191
aV0069
p192
aa(lp193
g191
aV0070
p194
aa(lp195
g191
aV0071
p196
aa(lp197
g191
aV0072
p198
aa(lp199
V2007:12:08 17:16:12
p200
aV0075
p201
aa(lp202
g200
aV0076
p203
aa(lp204
g200
aV0077
p205
aa(lp206
g200
aV0078
p207
aa(lp208
g200
aV0079
p209
aa(lp210
g200
aV0080
p211
aa(lp212
V2007:12:11 15:28:51
p213
aV0081
p214
aa(lp215
V2008:01:15 16:22:28
p216
aV0082
p217
aa(lp218
g216
aV0083
p219
aa(lp220
g216
aV0084
p221
aa(lp222
g216
aV0085
p223
aa(lp224
g216
aV0086
p225
aa(lp226
V2008:01:15 16:22:35
p227
aV0093
p228
aa(lp229
V2008:01:15 16:22:48
p230
aV0092
p231
aa(lp232
V2008:01:16 13:39:41
p233
aV0090
p234
aa(lp235
V2008:01:16 13:42:47
p236
aV0087
p237
aa(lp238
V2008:01:16 13:43:48
p239
aV0100
p240
aa(lp241
V2008:01:16 13:44:05
p242
aV0099
p243
aa(lp244
V2008:01:17 08:21:19
p245
aV0098
p246
aa(lp247
V2008:01:17 08:21:27
p248
aV0097
p249
aa(lp250
V2008:01:17 08:21:42
p251
aV0096
p252
aa(lp253
V2008:01:17 09:59:27
p254
aV0095
p255
aa(lp256
V2008:01:17 09:59:45
p257
aV0094
p258
aa(lp259
V2008:01:17 17:42:41
p260
aV0106
p261
aa(lp262
V2008:01:17 17:43:27
p263
aV0105
p264
aa(lp265
V2008:01:17 18:17:48
p266
aV0088
p267
aa(lp268
V2008:01:17 18:17:48
p269
aV0089
p270
aa(lp271
V2008:01:17 18:17:48
p272
aV0091
p273
aa(lp274
V2008:01:17 18:17:49
p275
aV0101
p276
aa(lp277
V2008:01:17 18:17:49
p278
aV0102
p279
aa(lp280
V2008:01:17 18:17:49
p281
aV0103
p282
aa(lp283
V2008:01:17 18:17:49
p284
aV0104
p285
aa(lp286
V2008:01:17 18:17:50
p287
aV0107
p288
aa(lp289
V2008:01:17 18:17:50
p290
aV0108
p291
aa(lp292
V2008:01:17 18:17:50
p293
aV0109
p294
aa(lp295
V2008:01:17 18:17:50
p296
aV0110
p297
aa(lp298
V2008:01:18 14:59:40
p299
aV3222
p300
aa(lp301
V2008:02:09 08:00:54
p302
aV3229
p303
aa(lp304
V2008:02:09 19:12:31
p305
aV3227
p306
aa(lp307
V2008:03:21 19:11:58
p308
aV3228
p309
aa(lp310
V2008:03:26 19:12:42
p311
aV3224
p312
aa(lp313
V2008:03:28 13:59:16
p314
aV3225
p315
aa(lp316
V2008:04:16 19:10:28
p317
aV3223
p318
aa(lp319
V2008:04:16 19:10:42
p320
aV0118
p321
aa(lp322
V2008:04:16 19:16:00
p323
aV0117
p324
aa(lp325
V2008:04:17 02:35:09
p326
aV0116
p327
aa(lp328
V2008:04:17 02:35:09
p329
aV3226
p330
aa(lp331
V2008:04:17 02:36:00
p332
aV0115
p333
aa(lp334
V2008:04:17 02:47:28
p335
aV0114
p336
aa(lp337
V2008:04:17 02:47:39
p338
aV0113
p339
aa(lp340
V2008:04:17 02:48:14
p341
aV0112
p342
aa(lp343
V2008:04:17 06:22:40
p344
aV0111
p345
aa(lp346
V2008:04:22 13:36:45
p347
aV0119
p348
aa(lp349
V2008:04:23 05:01:02
p350
aV0156
p351
aa(lp352
V2008:04:23 05:01:54
p353
aV0157
p354
aa(lp355
V2008:04:23 05:02:23
p356
aV0158
p357
aa(lp358
V2008:04:23 05:02:54
p359
aV0159
p360
aa(lp361
V2008:04:26 11:06:55
p362
aV0123
p363
aa(lp364
V2008:04:26 11:07:44
p365
aV0122
p366
aa(lp367
V2008:04:26 11:09:20
p368
aV0121
p369
aa(lp370
V2008:04:26 11:09:46
p371
aV0120
p372
aa(lp373
V2008:04:27 07:04:38
p374
aV0126
p375
aa(lp376
V2008:04:27 18:04:04
p377
aV0125
p378
aa(lp379
V2008:04:27 18:04:30
p380
aV0124
p381
aa(lp382
V2008:04:27 18:05:13
p383
aV0127
p384
aa(lp385
V2008:04:29 06:43:36
p386
aV0129
p387
aa(lp388
V2008:04:29 13:54:28
p389
aV0128
p390
aa(lp391
V2008:04:29 13:54:41
p392
aV0130
p393
aa(lp394
V2008:04:30 16:20:19
p395
aV0132
p396
aa(lp397
V2008:04:30 17:57:17
p398
aV0131
p399
aa(lp400
V2008:05:03 18:37:49
p401
aV0133
p402
aa(lp403
g401
aV0134
p404
aa(lp405
V2008:05:04 14:04:28
p406
aV0150
p407
aa(lp408
V2008:05:04 19:44:27
p409
aV0151
p410
aa(lp411
V2008:05:04 19:44:34
p412
aV0152
p413
aa(lp414
V2008:05:05 11:46:56
p415
aV0149
p416
aa(lp417
V2008:05:05 11:47:04
p418
aV0148
p419
aa(lp420
V2008:05:05 11:47:10
p421
aV0147
p422
aa(lp423
V2008:05:05 11:47:20
p424
aV0146
p425
aa(lp426
V2008:05:05 11:47:32
p427
aV0145
p428
aa(lp429
V2008:05:05 11:49:05
p430
aV0144
p431
aa(lp432
V2008:05:05 11:49:18
p433
aV0135
p434
aa(lp435
V2008:05:05 11:50:26
p436
aV0143
p437
aa(lp438
V2008:05:05 11:50:42
p439
aV0142
p440
aa(lp441
V2008:05:06 12:16:04
p442
aV0141
p443
aa(lp444
V2008:05:06 12:16:19
p445
aV0140
p446
aa(lp447
V2008:05:06 12:16:30
p448
aV0139
p449
aa(lp450
V2008:05:06 18:35:12
p451
aV0138
p452
aa(lp453
V2008:05:06 18:35:22
p454
aV0153
p455
aa(lp456
V2008:05:06 18:35:31
p457
aV0154
p458
aa(lp459
V2008:05:06 19:06:08
p460
aV0137
p461
aa(lp462
V2008:05:06 19:06:14
p463
aV0136
p464
aa(lp465
V2008:05:10 14:37:23
p466
aV0155
p467
aa(lp468
V2008:05:10 17:54:09
p469
aV0172
p470
aa(lp471
V2008:05:10 17:54:14
p472
aV0171
p473
aa(lp474
V2008:05:10 17:55:15
p475
aV0170
p476
aa(lp477
V2008:05:10 17:56:20
p478
aV0174
p479
aa(lp480
V2008:05:10 17:56:52
p481
aV0169
p482
aa(lp483
V2008:05:11 14:42:17
p484
aV0175
p485
aa(lp486
V2008:05:11 14:43:53
p487
aV0176
p488
aa(lp489
V2008:05:11 18:38:10
p490
aV0177
p491
aa(lp492
V2008:05:11 18:38:15
p493
aV0178
p494
aa(lp495
V2008:05:11 18:38:46
p496
aV0179
p497
aa(lp498
V2008:05:13 15:06:56
p499
aV0173
p500
aa(lp501
V2008:05:13 22:10:52
p502
aV0160
p503
aa(lp504
V2008:05:14 03:11:55
p505
aV0161
p506
aa(lp507
V2008:05:14 05:45:18
p508
aV0162
p509
aa(lp510
V2008:05:14 05:45:53
p511
aV0163
p512
aa(lp513
V2008:05:14 05:46:49
p514
aV0164
p515
aa(lp516
V2008:05:14 06:01:04
p517
aV0165
p518
aa(lp519
V2008:05:14 06:01:04
p520
aV0199
p521
aa(lp522
V2008:05:15 08:15:02
p523
aV0180
p524
aa(lp525
V2008:05:15 08:15:29
p526
aV0181
p527
aa(lp528
V2008:05:15 08:15:35
p529
aV0182
p530
aa(lp531
V2008:05:15 08:36:25
p532
aV0183
p533
aa(lp534
V2008:05:15 08:36:53
p535
aV0184
p536
aa(lp537
V2008:05:15 08:37:15
p538
aV0185
p539
aa(lp540
V2008:05:15 18:42:38
p541
aV0186
p542
aa(lp543
V2008:05:16 18:44:19
p544
aV0168
p545
aa(lp546
V2008:05:16 18:56:15
p547
aV0187
p548
aa(lp549
V2008:05:17 10:38:05
p550
aV0188
p551
aa(lp552
V2008:05:17 17:15:07
p553
aV0189
p554
aa(lp555
V2008:05:17 18:42:07
p556
aV0190
p557
aa(lp558
V2008:05:18 09:44:04
p559
aV0191
p560
aa(lp561
V2008:05:18 09:44:26
p562
aV0192
p563
aa(lp564
V2008:05:19 17:39:42
p565
aV0167
p566
aa(lp567
V2008:05:19 17:42:03
p568
aV0166
p569
aa(lp570
V2008:05:22 04:21:45
p571
aV0198
p572
aa(lp573
V2008:05:22 04:22:00
p574
aV0197
p575
aa(lp576
V2008:05:22 04:22:53
p577
aV0196
p578
aa(lp579
V2008:05:22 04:24:40
p580
aV0195
p581
aa(lp582
V2008:05:22 04:25:24
p583
aV0194
p584
aa(lp585
V2008:05:22 04:26:11
p586
aV0193
p587
aa(lp588
V2008:05:25 17:54:04
p589
aV0205
p590
aa(lp591
V2008:05:26 08:42:30
p592
aV0204
p593
aa(lp594
V2008:05:26 14:45:09
p595
aV0202
p596
aa(lp597
V2008:05:26 14:45:21
p598
aV0200
p599
aa(lp600
g598
aV0201
p601
aa(lp602
V2008:05:26 15:20:19
p603
aV0210
p604
aa(lp605
V2008:05:27 16:52:46
p606
aV0206
p607
aa(lp608
V2008:05:27 21:11:11
p609
aV0203
p610
aa(lp611
V2008:05:27 21:11:12
p612
aV0208
p613
aa(lp614
V2008:05:27 21:11:12
p615
aV0209
p616
aa(lp617
V2008:05:27 21:11:13
p618
aV0207
p619
aa(lp620
V2008:05:31 18:39:35
p621
aV0217
p622
aa(lp623
V2008:05:31 18:40:58
p624
aV0214
p625
aa(lp626
V2008:06:01 11:12:29
p627
aV0213
p628
aa(lp629
V2008:06:02 20:23:45
p630
aV0216
p631
aa(lp632
V2008:06:02 20:23:46
p633
aV0215
p634
aa(lp635
V2008:06:02 20:23:47
p636
aV0212
p637
aa(lp638
V2008:06:02 20:23:48
p639
aV0211
p640
aa(lp641
V2008:06:09 19:08:53
p642
aV0220
p643
aa(lp644
V2008:06:09 19:08:58
p645
aV0219
p646
aa(lp647
V2008:06:09 19:09:16
p648
aV0218
p649
aa(lp650
V2008:06:09 19:39:09
p651
aV0224
p652
aa(lp653
V2008:06:09 19:39:19
p654
aV0223
p655
aa(lp656
V2008:06:09 19:39:56
p657
aV0222
p658
aa(lp659
V2008:06:09 19:40:06
p660
aV0221
p661
aa(lp662
V2008:06:11 19:02:18
p663
aV0228
p664
aa(lp665
V2008:06:11 19:02:26
p666
aV3653
p667
aa(lp668
V2008:06:11 19:02:26
p669
aV3653
p670
aa(lp671
V2008:06:11 19:02:26
p672
aV3653
p673
aa(lp674
V2008:06:11 19:02:26
p675
aV3653
p676
aa(lp677
V2008:06:11 19:02:33
p678
aV0230
p679
aa(lp680
V2008:06:11 19:02:43
p681
aV0231
p682
aa(lp683
V2008:06:11 19:03:50
p684
aV0225
p685
aa(lp686
V2008:06:11 19:03:50
p687
aV0227
p688
aa(lp689
V2008:06:12 00:24:34
p690
aV0226
p691
aa(lp692
V2008:06:12 00:25:11
p693
aV0233
p694
aa(lp695
V2008:06:12 07:26:35
p696
aV0232
p697
aa(lp698
V2008:06:12 07:27:02
p699
aV0234
p700
aa(lp701
V2008:06:12 07:29:08
p702
aV0235
p703
aa(lp704
V2008:06:13 20:08:50
p705
aV3653
p706
aa(lp707
V2008:06:13 20:08:50
p708
aV3653
p709
aa(lp710
V2008:06:13 20:08:50
p711
aV3653
p712
aa(lp713
V2008:06:13 20:08:50
p714
aV3653
p715
aa(lp716
V2008:06:13 20:09:42
p717
aV0236
p718
aa(lp719
g717
aV0237
p720
aa(lp721
g717
aV0238
p722
aa(lp723
V2008:06:13 20:09:42
p724
aV3653
p725
aa(lp726
V2008:06:13 20:09:42
p727
aV3653
p728
aa(lp729
V2008:06:13 20:09:42
p730
aV3653
p731
aa(lp732
V2008:06:13 20:09:42
p733
aV3653
p734
aa(lp735
V2008:06:16 21:20:57
p736
aV3653
p737
aa(lp738
V2008:06:16 21:20:57
p739
aV3653
p740
aa(lp741
V2008:06:16 21:20:57
p742
aV3653
p743
aa(lp744
V2008:06:16 21:20:57
p745
aV3653
p746
aa(lp747
V2008:06:18 17:44:05
p748
aV0239
p749
aa(lp750
g748
aV0240
p751
aa(lp752
g748
aV0241
p753
aa(lp754
g748
aV0242
p755
aa(lp756
V2008:06:18 17:55:06
p757
aV0243
p758
aa(lp759
V2008:06:18 17:55:45
p760
aV0244
p761
aa(lp762
V2008:06:19 13:23:01
p763
aV0245
p764
aa(lp765
V2008:06:19 13:23:29
p766
aV0246
p767
aa(lp768
V2008:06:21 19:25:49
p769
aV0247
p770
aa(lp771
V2008:06:22 18:44:54
p772
aV0248
p773
aa(lp774
V2008:06:23 14:11:21
p775
aV0249
p776
aa(lp777
V2008:06:23 14:11:30
p778
aV0250
p779
aa(lp780
V2008:06:23 17:25:22
p781
aV0251
p782
aa(lp783
V2008:07:02 18:33:05
p784
aV0252
p785
aa(lp786
g784
aV0253
p787
aa(lp788
g784
aV0254
p789
aa(lp790
g784
aV0255
p791
aa(lp792
g784
aV0256
p793
aa(lp794
g784
aV0257
p795
aa(lp796
V2008:07:02 18:33:14
p797
aV0258
p798
aa(lp799
V2008:07:07 19:42:02
p800
aV0259
p801
aa(lp802
V2008:07:07 19:42:48
p803
aV0260
p804
aa(lp805
V2008:07:12 20:14:28
p806
aV0261
p807
aa(lp808
V2008:07:15 19:07:46
p809
aV0266
p810
aa(lp811
V2008:07:19 11:11:06
p812
aV2300
p813
aa(lp814
V2008:07:20 10:03:07
p815
aV0262
p816
aa(lp817
V2008:07:20 10:03:07
p818
aV0263
p819
aa(lp820
V2008:07:20 10:03:07
p821
aV0264
p822
aa(lp823
V2008:07:20 10:03:07
p824
aV0265
p825
aa(lp826
V2008:07:20 10:09:42
p827
aV0267
p828
aa(lp829
V2008:07:23 19:14:16
p830
aV0268
p831
aa(lp832
V2008:07:29 15:59:22
p833
aV0271
p834
aa(lp835
V2008:08:02 21:50:46
p836
aV0270
p837
aa(lp838
V2008:08:02 21:52:05
p839
aV0269
p840
aa(lp841
V2008:08:09 16:06:48
p842
aV0272
p843
aa(lp844
g842
aV0273
p845
aa(lp846
g842
aV0274
p847
aa(lp848
V2008:08:11 20:23:18
p849
aV0275
p850
aa(lp851
V2008:08:11 20:23:18
p852
aV0276
p853
aa(lp854
g852
aV0277
p855
aa(lp856
V2008:08:17 18:17:36
p857
aV0280
p858
aa(lp859
V2008:08:17 18:28:33
p860
aV0286
p861
aa(lp862
V2008:08:17 18:51:00
p863
aV0281
p864
aa(lp865
V2008:08:17 18:59:42
p866
aV0283
p867
aa(lp868
V2008:08:18 20:09:41
p869
aV0278
p870
aa(lp871
g869
aV0279
p872
aa(lp873
V2008:08:18 21:35:01
p874
aV0285
p875
aa(lp876
V2008:08:18 21:41:17
p877
aV0282
p878
aa(lp879
V2008:08:18 21:46:08
p880
aV0284
p881
aa(lp882
V2008:08:28 05:27:38
p883
aV0294
p884
aa(lp885
V2008:08:28 05:29:59
p886
aV0295
p887
aa(lp888
V2008:08:28 05:30:18
p889
aV0296
p890
aa(lp891
V2008:09:01 08:34:58
p892
aV0287
p893
aa(lp894
g892
aV0288
p895
aa(lp896
g892
aV0289
p897
aa(lp898
V2008:09:02 17:12:55
p899
aV0290
p900
aa(lp901
V2008:09:04 03:01:03
p902
aV0297
p903
aa(lp904
V2008:09:04 03:01:25
p905
aV0298
p906
aa(lp907
V2008:09:04 03:07:50
p908
aV0299
p909
aa(lp910
V2008:09:05 07:23:38
p911
aV0291
p912
aa(lp913
V2008:09:07 20:06:41
p914
aV0292
p915
aa(lp916
V2008:09:07 20:07:00
p917
aV0293
p918
aa(lp919
V2008:09:14 09:00:00
p920
aV0300
p921
aa(lp922
V2008:10:03 18:19:38
p923
aV0305
p924
aa(lp925
V2008:10:04 12:10:41
p926
aV0301
p927
aa(lp928
g926
aV0302
p929
aa(lp930
g926
aV0303
p931
aa(lp932
g926
aV0304
p933
aa(lp934
V2008:10:04 18:07:46
p935
aV0306
p936
aa(lp937
V2008:10:09 05:14:59
p938
aV0317
p939
aa(lp940
V2008:10:09 05:16:27
p941
aV0318
p942
aa(lp943
V2008:10:12 18:56:50
p944
aV0307
p945
aa(lp946
V2008:10:12 19:13:06
p947
aV0308
p948
aa(lp949
V2008:10:12 19:13:52
p950
aV0309
p951
aa(lp952
V2008:10:12 19:17:41
p953
aV0310
p954
aa(lp955
V2008:10:12 19:18:05
p956
aV0311
p957
aa(lp958
V2008:10:14 13:42:52
p959
aV0312
p960
aa(lp961
V2008:10:14 13:43:34
p962
aV0313
p963
aa(lp964
V2008:10:14 13:44:02
p965
aV0314
p966
aa(lp967
V2008:10:14 13:44:07
p968
aV0315
p969
aa(lp970
V2008:10:19 11:26:35
p971
aV0316
p972
aa(lp973
V2008:10:22 05:46:29
p974
aV0319
p975
aa(lp976
V2008:10:26 13:32:22
p977
aV2302
p978
aa(lp979
V2008:10:26 13:32:22
p980
aV3653
p981
aa(lp982
V2008:10:26 13:32:22
p983
aV3653
p984
aa(lp985
V2008:10:26 13:32:22
p986
aV3653
p987
aa(lp988
V2008:10:26 13:32:22
p989
aV3653
p990
aa(lp991
V2008:10:26 13:32:33
p992
aV2298
p993
aa(lp994
V2008:10:31 13:15:39
p995
aV2941
p996
aa(lp997
V2008:10:31 13:15:47
p998
aV2942
p999
aa(lp1000
V2008:10:31 13:22:15
p1001
aV2943
p1002
aa(lp1003
V2008:11:02 13:15:16
p1004
aV0328
p1005
aa(lp1006
V2008:11:03 20:14:10
p1007
aV0320
p1008
aa(lp1009
V2008:11:03 20:14:30
p1010
aV0321
p1011
aa(lp1012
V2008:11:03 20:14:54
p1013
aV0322
p1014
aa(lp1015
V2008:11:04 16:30:32
p1016
aV0323
p1017
aa(lp1018
V2008:11:04 16:31:04
p1019
aV0324
p1020
aa(lp1021
V2008:11:04 16:31:59
p1022
aV0325
p1023
aa(lp1024
V2008:11:06 07:32:54
p1025
aV0326
p1026
aa(lp1027
V2008:11:06 20:26:32
p1028
aV0327
p1029
aa(lp1030
V2008:11:12 19:12:20
p1031
aV0329
p1032
aa(lp1033
V2008:11:12 19:12:20
p1034
aV3653
p1035
aa(lp1036
V2008:11:12 19:12:20
p1037
aV3653
p1038
aa(lp1039
V2008:11:12 19:12:20
p1040
aV3653
p1041
aa(lp1042
V2008:11:12 19:12:20
p1043
aV3653
p1044
aa(lp1045
V2008:11:12 19:12:20
p1046
aV3653
p1047
aa(lp1048
V2008:11:12 19:12:20
p1049
aV3653
p1050
aa(lp1051
V2008:11:12 19:12:20
p1052
aV3653
p1053
aa(lp1054
V2008:11:12 19:12:20
p1055
aV3653
p1056
aa(lp1057
V2008:11:12 19:12:20
p1058
aV3653
p1059
aa(lp1060
V2008:11:12 19:12:20
p1061
aV3653
p1062
aa(lp1063
V2008:11:12 19:12:20
p1064
aV3653
p1065
aa(lp1066
V2008:11:12 19:12:20
p1067
aV3653
p1068
aa(lp1069
V2008:11:13 00:57:10
p1070
aV3653
p1071
aa(lp1072
V2008:11:13 00:57:10
p1073
aV3653
p1074
aa(lp1075
V2008:11:13 00:57:10
p1076
aV3653
p1077
aa(lp1078
V2008:11:13 00:57:10
p1079
aV3653
p1080
aa(lp1081
V2008:11:13 00:57:16
p1082
aV3653
p1083
aa(lp1084
V2008:11:13 00:57:16
p1085
aV3653
p1086
aa(lp1087
V2008:11:13 00:57:16
p1088
aV3653
p1089
aa(lp1090
V2008:11:13 00:57:16
p1091
aV3653
p1092
aa(lp1093
V2008:11:13 00:58:31
p1094
aV3653
p1095
aa(lp1096
V2008:11:13 00:58:31
p1097
aV3653
p1098
aa(lp1099
V2008:11:13 00:58:31
p1100
aV3653
p1101
aa(lp1102
V2008:11:13 00:58:31
p1103
aV3653
p1104
aa(lp1105
V2008:11:13 00:58:36
p1106
aV3653
p1107
aa(lp1108
V2008:11:13 00:58:36
p1109
aV3653
p1110
aa(lp1111
V2008:11:13 00:58:36
p1112
aV3653
p1113
aa(lp1114
V2008:11:13 00:58:36
p1115
aV3653
p1116
aa(lp1117
V2008:11:13 00:59:09
p1118
aV3653
p1119
aa(lp1120
V2008:11:13 00:59:09
p1121
aV3653
p1122
aa(lp1123
V2008:11:13 00:59:09
p1124
aV3653
p1125
aa(lp1126
V2008:11:13 00:59:09
p1127
aV3653
p1128
aa(lp1129
V2008:11:18 17:56:49
p1130
aV0330
p1131
aa(lp1132
g1130
aV0331
p1133
aa(lp1134
V2008:11:19 20:12:46
p1135
aV0333
p1136
aa(lp1137
V2008:11:22 09:45:36
p1138
aV0332
p1139
aa(lp1140
V2008:11:25 08:13:55
p1141
aV0336
p1142
aa(lp1143
V2008:11:28 13:01:16
p1144
aV0334
p1145
aa(lp1146
V2008:11:29 12:04:15
p1147
aV0335
p1148
aa(lp1149
V2008:11:29 17:23:00
p1150
aV0337
p1151
aa(lp1152
V2008:11:30 14:06:09
p1153
aV0338
p1154
aa(lp1155
V2008:12:07 11:59:31
p1156
aV0339
p1157
aa(lp1158
V2008:12:07 11:59:31
p1159
aV0340
p1160
aa(lp1161
V2008:12:10 20:25:59
p1162
aV0341
p1163
aa(lp1164
V2008:12:10 20:26:41
p1165
aV0342
p1166
aa(lp1167
V2008:12:13 08:16:45
p1168
aV0343
p1169
aa(lp1170
V2008:12:13 10:00:32
p1171
aV0344
p1172
aa(lp1173
V2008:12:13 10:00:47
p1174
aV0345
p1175
aa(lp1176
V2008:12:17 08:12:10
p1177
aV0346
p1178
aa(lp1179
V2008:12:17 08:12:10
p1180
aV0348
p1181
aa(lp1182
V2008:12:17 08:12:54
p1183
aV0347
p1184
aa(lp1185
V2008:12:17 08:12:54
p1186
aV0349
p1187
aa(lp1188
V2008:12:23 12:38:03
p1189
aV0350
p1190
aa(lp1191
V2008:12:23 12:38:16
p1192
aV0351
p1193
aa(lp1194
V2008:12:25 09:49:31
p1195
aV0352
p1196
aa(lp1197
V2008:12:25 12:45:43
p1198
aV0353
p1199
aa(lp1200
V2008:12:25 13:13:18
p1201
aV0354
p1202
aa(lp1203
V2008:12:25 14:43:20
p1204
aV0355
p1205
aa(lp1206
V2008:12:25 15:30:55
p1207
aV0356
p1208
aa(lp1209
V2008:12:25 15:31:07
p1210
aV0357
p1211
aa(lp1212
V2008:12:25 15:31:11
p1213
aV0358
p1214
aa(lp1215
V2008:12:25 15:31:16
p1216
aV0359
p1217
aa(lp1218
V2008:12:25 16:16:49
p1219
aV0360
p1220
aa(lp1221
V2008:12:25 19:02:39
p1222
aV0361
p1223
aa(lp1224
V2008:12:25 19:03:04
p1225
aV0362
p1226
aa(lp1227
V2008:12:25 19:03:49
p1228
aV0363
p1229
aa(lp1230
V2008:12:31 19:43:31
p1231
aV0364
p1232
aa(lp1233
V2009:01:02 08:20:20
p1234
aV0365
p1235
aa(lp1236
V2009:01:07 21:11:59
p1237
aV0366
p1238
aa(lp1239
V2009:01:09 20:28:54
p1240
aV0367
p1241
aa(lp1242
V2009:01:20 13:37:21
p1243
aV0368
p1244
aa(lp1245
V2009:01:20 20:07:46
p1246
aV0369
p1247
aa(lp1248
V2009:01:25 14:48:32
p1249
aV0370
p1250
aa(lp1251
V2009:01:31 18:33:29
p1252
aV0371
p1253
aa(lp1254
V2009:02:02 20:37:20
p1255
aV0373
p1256
aa(lp1257
V2009:02:02 20:37:28
p1258
aV0372
p1259
aa(lp1260
V2009:02:06 12:30:20
p1261
aV0374
p1262
aa(lp1263
V2009:02:08 17:30:13
p1264
aV0375
p1265
aa(lp1266
V2009:02:10 19:37:25
p1267
aV0376
p1268
aa(lp1269
V2009:02:10 19:38:28
p1270
aV0377
p1271
aa(lp1272
V2009:02:10 19:38:41
p1273
aV0378
p1274
aa(lp1275
V2009:02:12 20:33:33
p1276
aV0381
p1277
aa(lp1278
V2009:02:12 20:34:09
p1279
aV0380
p1280
aa(lp1281
V2009:02:15 19:33:50
p1282
aV0379
p1283
aa(lp1284
V2009:03:03 09:45:52
p1285
aV0382
p1286
aa(lp1287
V2009:03:03 09:46:32
p1288
aV0383
p1289
aa(lp1290
V2009:03:03 09:46:57
p1291
aV0384
p1292
aa(lp1293
V2009:03:04 10:57:05
p1294
aV0385
p1295
aa(lp1296
V2009:03:04 10:59:21
p1297
aV0386
p1298
aa(lp1299
V2009:03:15 18:23:13
p1300
aV0387
p1301
aa(lp1302
V2009:03:19 18:58:36
p1303
aV0388
p1304
aa(lp1305
V2009:03:19 18:59:46
p1306
aV0389
p1307
aa(lp1308
V2009:03:19 19:00:09
p1309
aV0390
p1310
aa(lp1311
V2009:03:22 16:18:13
p1312
aV0391
p1313
aa(lp1314
V2009:04:01 09:07:02
p1315
aV0392
p1316
aa(lp1317
V2009:04:05 18:04:37
p1318
aV0393
p1319
aa(lp1320
V2009:04:09 08:47:23
p1321
aV0395
p1322
aa(lp1323
V2009:04:11 18:14:08
p1324
aV0394
p1325
aa(lp1326
V2009:04:13 14:51:21
p1327
aV0396
p1328
aa(lp1329
g1327
aV0397
p1330
aa(lp1331
g1327
aV0398
p1332
aa(lp1333
V2009:04:13 14:51:53
p1334
aV0399
p1335
aa(lp1336
V2009:04:14 17:35:21
p1337
aV0400
p1338
aa(lp1339
V2009:04:19 14:23:01
p1340
aV0401
p1341
aa(lp1342
V2009:04:21 07:26:14
p1343
aV0402
p1344
aa(lp1345
V2009:04:21 07:36:27
p1346
aV0403
p1347
aa(lp1348
V2009:04:21 07:45:00
p1349
aV0404
p1350
aa(lp1351
V2009:04:21 07:45:25
p1352
aV0405
p1353
aa(lp1354
V2009:04:21 07:45:49
p1355
aV0406
p1356
aa(lp1357
V2009:04:21 07:50:52
p1358
aV0407
p1359
aa(lp1360
V2009:04:21 18:19:01
p1361
aV0408
p1362
aa(lp1363
V2009:04:26 17:19:52
p1364
aV0409
p1365
aa(lp1366
V2009:04:27 17:38:31
p1367
aV0410
p1368
aa(lp1369
g1367
aV0411
p1370
aa(lp1371
V2009:05:02 21:33:31
p1372
aV0412
p1373
aa(lp1374
V2009:05:02 21:33:34
p1375
aV0413
p1376
aa(lp1377
V2009:05:02 21:33:37
p1378
aV0414
p1379
aa(lp1380
V2009:05:02 21:33:40
p1381
aV0415
p1382
aa(lp1383
V2009:05:06 20:54:57
p1384
aV0417
p1385
aa(lp1386
V2009:05:06 20:54:58
p1387
aV0416
p1388
aa(lp1389
V2009:05:08 10:10:24
p1390
aV0418
p1391
aa(lp1392
V2009:05:25 13:45:03
p1393
aV0419
p1394
aa(lp1395
g1393
aV0420
p1396
aa(lp1397
g1393
aV0421
p1398
aa(lp1399
g1393
aV0422
p1400
aa(lp1401
g1393
aV0423
p1402
aa(lp1403
g1393
aV0424
p1404
aa(lp1405
g1393
aV0425
p1406
aa(lp1407
V2009:05:25 13:45:06
p1408
aV0426
p1409
aa(lp1410
V2009:05:30 15:43:51
p1411
aV0427
p1412
aa(lp1413
V2009:06:01 21:06:03
p1414
aV0428
p1415
aa(lp1416
V2009:06:01 21:06:04
p1417
aV0429
p1418
aa(lp1419
V2009:06:01 21:06:05
p1420
aV0430
p1421
aa(lp1422
V2009:06:01 21:06:06
p1423
aV0431
p1424
aa(lp1425
V2009:06:01 21:06:07
p1426
aV0432
p1427
aa(lp1428
V2009:06:01 21:06:08
p1429
aV0433
p1430
aa(lp1431
V2009:06:01 21:06:09
p1432
aV0434
p1433
aa(lp1434
V2009:06:01 21:06:10
p1435
aV0435
p1436
aa(lp1437
V2009:06:01 21:06:11
p1438
aV3653
p1439
aa(lp1440
V2009:06:01 21:06:11
p1441
aV3653
p1442
aa(lp1443
V2009:06:01 21:06:11
p1444
aV3653
p1445
aa(lp1446
V2009:06:01 21:06:11
p1447
aV3653
p1448
aa(lp1449
V2009:06:01 21:06:12
p1450
aV0436
p1451
aa(lp1452
V2009:06:01 21:06:13
p1453
aV0437
p1454
aa(lp1455
V2009:06:06 20:45:30
p1456
aV0438
p1457
aa(lp1458
V2009:06:06 20:45:32
p1459
aV0439
p1460
aa(lp1461
V2009:06:06 20:45:34
p1462
aV0440
p1463
aa(lp1464
V2009:06:06 20:45:36
p1465
aV0441
p1466
aa(lp1467
V2009:06:06 20:45:40
p1468
aV0442
p1469
aa(lp1470
V2009:06:18 13:54:05
p1471
aV0447
p1472
aa(lp1473
V2009:06:18 13:54:07
p1474
aV0445
p1475
aa(lp1476
V2009:06:18 13:54:07
p1477
aV0446
p1478
aa(lp1479
V2009:06:18 13:54:08
p1480
aV0444
p1481
aa(lp1482
V2009:06:18 13:54:09
p1483
aV0443
p1484
aa(lp1485
V2009:06:21 09:48:03
p1486
aV0448
p1487
aa(lp1488
V2009:06:21 09:49:07
p1489
aV0449
p1490
aa(lp1491
V2009:06:21 15:39:30
p1492
aV0450
p1493
aa(lp1494
V2009:06:27 08:18:29
p1495
aV0454
p1496
aa(lp1497
V2009:06:27 08:18:51
p1498
aV0453
p1499
aa(lp1500
V2009:06:28 08:50:08
p1501
aV0451
p1502
aa(lp1503
V2009:06:28 08:50:35
p1504
aV0452
p1505
aa(lp1506
V2009:06:30 21:51:10
p1507
aV0462
p1508
aa(lp1509
V2009:06:30 21:51:11
p1510
aV0460
p1511
aa(lp1512
V2009:06:30 21:51:11
p1513
aV0461
p1514
aa(lp1515
V2009:06:30 21:51:13
p1516
aV0458
p1517
aa(lp1518
V2009:06:30 21:51:13
p1519
aV0459
p1520
aa(lp1521
V2009:06:30 21:51:14
p1522
aV0457
p1523
aa(lp1524
V2009:06:30 21:51:15
p1525
aV0456
p1526
aa(lp1527
V2009:06:30 21:51:16
p1528
aV0455
p1529
aa(lp1530
V2009:07:15 22:10:46
p1531
aV0469
p1532
aa(lp1533
V2009:07:15 22:10:47
p1534
aV0467
p1535
aa(lp1536
V2009:07:15 22:10:47
p1537
aV0468
p1538
aa(lp1539
V2009:07:15 22:10:48
p1540
aV0466
p1541
aa(lp1542
V2009:07:15 22:10:49
p1543
aV0465
p1544
aa(lp1545
V2009:07:15 22:10:51
p1546
aV0463
p1547
aa(lp1548
V2009:07:15 22:10:51
p1549
aV0464
p1550
aa(lp1551
V2009:07:28 21:16:04
p1552
aV0471
p1553
aa(lp1554
V2009:07:28 21:16:45
p1555
aV0470
p1556
aa(lp1557
V2009:08:10 20:47:09
p1558
aV0478
p1559
aa(lp1560
V2009:08:10 20:47:15
p1561
aV0477
p1562
aa(lp1563
V2009:08:10 20:47:17
p1564
aV0476
p1565
aa(lp1566
V2009:08:10 20:47:18
p1567
aV0475
p1568
aa(lp1569
V2009:08:10 20:47:20
p1570
aV0473
p1571
aa(lp1572
V2009:08:10 20:47:20
p1573
aV0474
p1574
aa(lp1575
V2009:08:10 20:47:29
p1576
aV0472
p1577
aa(lp1578
V2009:08:12 20:26:31
p1579
aV0481
p1580
aa(lp1581
V2009:08:12 20:26:31
p1582
aV0482
p1583
aa(lp1584
V2009:08:12 20:26:31
p1585
aV0483
p1586
aa(lp1587
V2009:08:12 20:26:32
p1588
aV0479
p1589
aa(lp1590
V2009:08:12 20:26:32
p1591
aV0480
p1592
aa(lp1593
V2009:08:20 12:48:51
p1594
aV0485
p1595
aa(lp1596
V2009:08:20 12:48:58
p1597
aV0484
p1598
aa(lp1599
V2009:09:03 16:40:56
p1600
aV0490
p1601
aa(lp1602
V2009:09:03 16:40:57
p1603
aV0488
p1604
aa(lp1605
V2009:09:03 16:40:57
p1606
aV0489
p1607
aa(lp1608
V2009:09:03 16:40:58
p1609
aV0486
p1610
aa(lp1611
g1609
aV0487
p1612
aa(lp1613
V2009:09:10 07:06:21
p1614
aV0493
p1615
aa(lp1616
V2009:09:10 07:06:37
p1617
aV0492
p1618
aa(lp1619
V2009:09:10 07:09:56
p1620
aV0491
p1621
aa(lp1622
V2009:09:11 09:32:03
p1623
aV0496
p1624
aa(lp1625
V2009:09:11 09:32:12
p1626
aV0495
p1627
aa(lp1628
V2009:09:11 09:32:21
p1629
aV0494
p1630
aa(lp1631
V2009:09:13 20:57:57
p1632
aV0497
p1633
aa(lp1634
V2009:09:13 20:57:57
p1635
aV0498
p1636
aa(lp1637
V2009:09:16 08:54:39
p1638
aV0499
p1639
aa(lp1640
V2009:09:30 08:54:14
p1641
aV0500
p1642
aa(lp1643
V2009:10:07 21:10:12
p1644
aV0501
p1645
aa(lp1646
V2009:10:07 21:10:13
p1647
aV0502
p1648
aa(lp1649
V2009:10:10 17:21:56
p1650
aV0503
p1651
aa(lp1652
V2009:10:18 12:31:32
p1653
aV0537
p1654
aa(lp1655
V2009:10:23 07:38:44
p1656
aV0504
p1657
aa(lp1658
V2009:10:23 11:42:24
p1659
aV0505
p1660
aa(lp1661
V2009:10:23 18:59:53
p1662
aV0506
p1663
aa(lp1664
V2009:10:24 09:50:47
p1665
aV0507
p1666
aa(lp1667
V2009:10:24 15:06:38
p1668
aV0508
p1669
aa(lp1670
V2009:10:26 18:46:49
p1671
aV0509
p1672
aa(lp1673
V2009:10:26 20:35:37
p1674
aV0510
p1675
aa(lp1676
V2009:10:27 08:42:05
p1677
aV0513
p1678
aa(lp1679
V2009:10:27 19:23:20
p1680
aV0511
p1681
aa(lp1682
V2009:10:27 19:23:57
p1683
aV0512
p1684
aa(lp1685
V2009:10:31 16:42:18
p1686
aV0514
p1687
aa(lp1688
V2009:10:31 17:28:21
p1689
aV0515
p1690
aa(lp1691
V2009:11:01 07:52:22
p1692
aV0519
p1693
aa(lp1694
V2009:11:01 07:52:22
p1695
aV0520
p1696
aa(lp1697
V2009:11:01 07:52:22
p1698
aV0521
p1699
aa(lp1700
V2009:11:01 07:52:23
p1701
aV0517
p1702
aa(lp1703
V2009:11:01 07:52:23
p1704
aV0518
p1705
aa(lp1706
V2009:11:01 07:52:24
p1707
aV0516
p1708
aa(lp1709
V2009:11:02 06:50:19
p1710
aV0522
p1711
aa(lp1712
V2009:11:02 06:50:30
p1713
aV0523
p1714
aa(lp1715
V2009:11:06 11:54:50
p1716
aV0524
p1717
aa(lp1718
V2009:11:11 12:14:53
p1719
aV0525
p1720
aa(lp1721
V2009:11:13 12:30:39
p1722
aV0526
p1723
aa(lp1724
V2009:11:15 20:46:44
p1725
aV0528
p1726
aa(lp1727
V2009:11:15 20:46:45
p1728
aV0527
p1729
aa(lp1730
V2009:11:15 21:50:35
p1731
aV0529
p1732
aa(lp1733
V2009:11:22 20:08:36
p1734
aV0530
p1735
aa(lp1736
g1734
aV0531
p1737
aa(lp1738
V2009:11:22 20:08:37
p1739
aV0532
p1740
aa(lp1741
V2009:11:22 20:10:21
p1742
aV0533
p1743
aa(lp1744
V2009:11:23 07:11:21
p1745
aV0535
p1746
aa(lp1747
V2009:11:23 07:11:54
p1748
aV0534
p1749
aa(lp1750
V2009:11:25 14:05:25
p1751
aV0536
p1752
aa(lp1753
V2009:12:05 14:31:35
p1754
aV0538
p1755
aa(lp1756
g1754
aV0539
p1757
aa(lp1758
V2009:12:05 14:46:34
p1759
aV0540
p1760
aa(lp1761
V2009:12:08 16:39:26
p1762
aV0543
p1763
aa(lp1764
V2009:12:08 18:11:00
p1765
aV0542
p1766
aa(lp1767
V2009:12:08 18:11:01
p1768
aV0541
p1769
aa(lp1770
V2009:12:12 16:09:38
p1771
aV0544
p1772
aa(lp1773
V2009:12:15 12:31:06
p1774
aV0545
p1775
aa(lp1776
V2009:12:16 19:25:05
p1777
aV0546
p1778
aa(lp1779
V2009:12:16 19:32:59
p1780
aV0547
p1781
aa(lp1782
V2009:12:19 19:31:08
p1783
aV0548
p1784
aa(lp1785
V2009:12:23 11:57:46
p1786
aV0549
p1787
aa(lp1788
V2009:12:25 10:27:21
p1789
aV0550
p1790
aa(lp1791
V2009:12:29 08:31:52
p1792
aV0551
p1793
aa(lp1794
V2009:12:29 08:34:37
p1795
aV0552
p1796
aa(lp1797
V2009:12:31 13:12:30
p1798
aV0554
p1799
aa(lp1800
V2009:12:31 13:13:28
p1801
aV0553
p1802
aa(lp1803
V2010:01:01 16:50:10
p1804
aV0561
p1805
aa(lp1806
g1804
aV0562
p1807
aa(lp1808
V2010:01:01 16:50:12
p1809
aV0563
p1810
aa(lp1811
V2010:01:03 14:43:38
p1812
aV0560
p1813
aa(lp1814
V2010:01:03 14:43:39
p1815
aV0555
p1816
aa(lp1817
V2010:01:03 14:43:39
p1818
aV0556
p1819
aa(lp1820
V2010:01:03 14:43:39
p1821
aV0557
p1822
aa(lp1823
V2010:01:03 14:43:39
p1824
aV0558
p1825
aa(lp1826
V2010:01:03 14:43:39
p1827
aV0559
p1828
aa(lp1829
V2010:01:08 07:20:23
p1830
aV0564
p1831
aa(lp1832
g1830
aV0565
p1833
aa(lp1834
V2010:01:09 11:13:27
p1835
aV0566
p1836
aa(lp1837
V2010:01:11 21:40:50
p1838
aV0567
p1839
aa(lp1840
V2010:01:22 20:16:30
p1841
aV0570
p1842
aa(lp1843
V2010:01:22 20:16:31
p1844
aV0568
p1845
aa(lp1846
g1844
aV0569
p1847
aa(lp1848
V2010:01:22 20:30:57
p1849
aV0572
p1850
aa(lp1851
V2010:01:22 20:30:58
p1852
aV0571
p1853
aa(lp1854
V2010:01:26 13:12:48
p1855
aV0573
p1856
aa(lp1857
V2010:02:07 19:50:10
p1858
aV0576
p1859
aa(lp1860
V2010:02:07 21:01:24
p1861
aV0574
p1862
aa(lp1863
g1861
aV0575
p1864
aa(lp1865
V2010:02:12 08:03:41
p1866
aV0577
p1867
aa(lp1868
V2010:02:12 11:10:10
p1869
aV0578
p1870
aa(lp1871
V2010:02:13 11:18:25
p1872
aV0579
p1873
aa(lp1874
V2010:02:13 11:29:58
p1875
aV0580
p1876
aa(lp1877
V2010:02:15 12:38:12
p1878
aV0581
p1879
aa(lp1880
V2010:02:17 09:31:54
p1881
aV0582
p1882
aa(lp1883
V2010:02:19 20:30:59
p1884
aV0583
p1885
aa(lp1886
V2010:02:20 17:58:43
p1887
aV0584
p1888
aa(lp1889
V2010:03:11 09:54:12
p1890
aV0587
p1891
aa(lp1892
V2010:03:14 08:12:08
p1893
aV0585
p1894
aa(lp1895
V2010:03:14 10:05:31
p1896
aV0586
p1897
aa(lp1898
V2010:03:14 17:54:55
p1899
aV0588
p1900
aa(lp1901
V2010:03:17 20:42:29
p1902
aV0592
p1903
aa(lp1904
V2010:03:17 20:42:30
p1905
aV0591
p1906
aa(lp1907
V2010:03:17 20:42:31
p1908
aV0590
p1909
aa(lp1910
V2010:03:17 20:42:32
p1911
aV0589
p1912
aa(lp1913
V2010:03:20 20:00:19
p1914
aV0593
p1915
aa(lp1916
V2010:03:21 18:59:57
p1917
aV0594
p1918
aa(lp1919
V2010:03:28 14:48:54
p1920
aV0595
p1921
aa(lp1922
V2010:03:28 14:48:54
p1923
aV0596
p1924
aa(lp1925
V2010:04:03 14:16:34
p1926
aV0597
p1927
aa(lp1928
V2010:04:05 19:14:06
p1929
aV0598
p1930
aa(lp1931
V2010:04:07 09:56:57
p1932
aV0603
p1933
aa(lp1934
V2010:04:14 08:39:36
p1935
aV0599
p1936
aa(lp1937
g1935
aV0600
p1938
aa(lp1939
V2010:04:16 10:33:29
p1940
aV0601
p1941
aa(lp1942
g1940
aV0602
p1943
aa(lp1944
V2010:04:21 09:01:22
p1945
aV0606
p1946
aa(lp1947
V2010:04:21 09:14:09
p1948
aV0604
p1949
aa(lp1950
V2010:04:21 10:21:27
p1951
aV0605
p1952
aa(lp1953
V2010:04:21 14:13:21
p1954
aV0610
p1955
aa(lp1956
V2010:04:21 18:19:37
p1957
aV0607
p1958
aa(lp1959
V2010:04:21 20:28:35
p1960
aV0608
p1961
aa(lp1962
V2010:04:22 07:14:03
p1963
aV0609
p1964
aa(lp1965
V2010:04:22 19:25:36
p1966
aV0611
p1967
aa(lp1968
V2010:04:24 09:18:23
p1969
aV0612
p1970
aa(lp1971
V2010:04:24 15:12:55
p1972
aV0613
p1973
aa(lp1974
V2010:04:25 15:41:11
p1975
aV0614
p1976
aa(lp1977
V2010:04:27 08:00:50
p1978
aV0615
p1979
aa(lp1980
V2010:04:28 15:26:50
p1981
aV0616
p1982
aa(lp1983
V2010:04:30 16:47:14
p1984
aV0617
p1985
aa(lp1986
V2010:05:04 11:37:40
p1987
aV0618
p1988
aa(lp1989
V2010:05:06 09:32:41
p1990
aV0624
p1991
aa(lp1992
V2010:05:06 09:32:42
p1993
aV0622
p1994
aa(lp1995
V2010:05:06 09:32:42
p1996
aV0623
p1997
aa(lp1998
V2010:05:06 10:12:25
p1999
aV0619
p2000
aa(lp2001
g1999
aV0620
p2002
aa(lp2003
g1999
aV0621
p2004
aa(lp2005
V2010:05:06 15:17:05
p2006
aV0627
p2007
aa(lp2008
V2010:05:06 15:17:06
p2009
aV0626
p2010
aa(lp2011
V2010:05:06 15:17:07
p2012
aV0625
p2013
aa(lp2014
V2010:05:09 21:23:13
p2015
aV0628
p2016
aa(lp2017
V2010:05:10 17:04:52
p2018
aV0629
p2019
aa(lp2020
V2010:05:12 07:57:25
p2021
aV0630
p2022
aa(lp2023
V2010:05:12 19:48:28
p2024
aV0632
p2025
aa(lp2026
V2010:05:12 19:48:29
p2027
aV0631
p2028
aa(lp2029
V2010:05:15 11:16:59
p2030
aV0633
p2031
aa(lp2032
V2010:05:17 09:46:38
p2033
aV0634
p2034
aa(lp2035
V2010:05:17 09:47:26
p2036
aV0635
p2037
aa(lp2038
V2010:05:22 11:38:33
p2039
aV0636
p2040
aa(lp2041
V2010:05:22 18:47:36
p2042
aV0637
p2043
aa(lp2044
V2010:05:23 11:30:28
p2045
aV0638
p2046
aa(lp2047
V2010:05:23 11:42:45
p2048
aV0639
p2049
aa(lp2050
V2010:05:24 15:06:55
p2051
aV0640
p2052
aa(lp2053
V2010:05:24 19:12:50
p2054
aV0642
p2055
aa(lp2056
V2010:05:24 19:13:23
p2057
aV0641
p2058
aa(lp2059
V2010:05:28 16:57:43
p2060
aV0643
p2061
aa(lp2062
g2060
aV0644
p2063
aa(lp2064
g2060
aV0645
p2065
aa(lp2066
g2060
aV0646
p2067
aa(lp2068
g2060
aV0647
p2069
aa(lp2070
g2060
aV0648
p2071
aa(lp2072
g2060
aV0649
p2073
aa(lp2074
g2060
aV0650
p2075
aa(lp2076
g2060
aV0651
p2077
aa(lp2078
g2060
aV0652
p2079
aa(lp2080
g2060
aV0653
p2081
aa(lp2082
g2060
aV0654
p2083
aa(lp2084
V2010:05:31 11:02:27
p2085
aV0655
p2086
aa(lp2087
V2010:05:31 15:45:45
p2088
aV0656
p2089
aa(lp2090
V2010:06:01 12:52:10
p2091
aV0658
p2092
aa(lp2093
V2010:06:01 12:54:22
p2094
aV0657
p2095
aa(lp2096
V2010:06:01 18:03:54
p2097
aV0661
p2098
aa(lp2099
V2010:06:02 08:44:14
p2100
aV0660
p2101
aa(lp2102
V2010:06:02 14:28:38
p2103
aV0659
p2104
aa(lp2105
V2010:06:02 20:53:32
p2106
aV0663
p2107
aa(lp2108
V2010:06:02 20:53:32
p2109
aV0664
p2110
aa(lp2111
V2010:06:02 20:53:33
p2112
aV0662
p2113
aa(lp2114
V2010:06:03 16:24:02
p2115
aV0665
p2116
aa(lp2117
V2010:06:09 17:25:57
p2118
aV0666
p2119
aa(lp2120
V2010:06:11 12:58:26
p2121
aV0668
p2122
aa(lp2123
V2010:06:11 12:58:31
p2124
aV0667
p2125
aa(lp2126
V2010:06:11 13:37:43
p2127
aV0669
p2128
aa(lp2129
V2010:06:14 10:11:41
p2130
aV0670
p2131
aa(lp2132
V2010:06:15 13:27:40
p2133
aV0671
p2134
aa(lp2135
V2010:06:17 15:06:03
p2136
aV0672
p2137
aa(lp2138
V2010:06:18 20:00:39
p2139
aV0673
p2140
aa(lp2141
V2010:06:22 15:10:52
p2142
aV0675
p2143
aa(lp2144
V2010:06:22 15:11:03
p2145
aV0674
p2146
aa(lp2147
V2010:06:28 18:06:01
p2148
aV0676
p2149
aa(lp2150
g2148
aV0677
p2151
aa(lp2152
g2148
aV0678
p2153
aa(lp2154
g2148
aV0679
p2155
aa(lp2156
g2148
aV0680
p2157
aa(lp2158
g2148
aV0681
p2159
aa(lp2160
g2148
aV0682
p2161
aa(lp2162
g2148
aV0683
p2163
aa(lp2164
g2148
aV0684
p2165
aa(lp2166
g2148
aV0685
p2167
aa(lp2168
g2148
aV0686
p2169
aa(lp2170
g2148
aV0687
p2171
aa(lp2172
g2148
aV0688
p2173
aa(lp2174
V2010:06:28 18:06:07
p2175
aV0689
p2176
aa(lp2177
V2010:06:28 18:06:39
p2178
aV0690
p2179
aa(lp2180
V2010:06:28 18:57:41
p2181
aV0691
p2182
aa(lp2183
V2010:06:28 21:29:50
p2184
aV0692
p2185
aa(lp2186
V2010:06:28 21:30:00
p2187
aV0695
p2188
aa(lp2189
V2010:06:28 21:30:38
p2190
aV0693
p2191
aa(lp2192
g2190
aV0694
p2193
aa(lp2194
V2010:06:28 21:30:55
p2195
aV0696
p2196
aa(lp2197
V2010:06:28 21:30:59
p2198
aV0697
p2199
aa(lp2200
V2010:07:07 19:42:24
p2201
aV0700
p2202
aa(lp2203
V2010:07:07 20:14:04
p2204
aV0698
p2205
aa(lp2206
V2010:07:08 14:19:33
p2207
aV0701
p2208
aa(lp2209
V2010:07:09 15:34:08
p2210
aV0699
p2211
aa(lp2212
V2010:07:10 19:53:51
p2213
aV0702
p2214
aa(lp2215
V2010:07:10 19:54:14
p2216
aV0703
p2217
aa(lp2218
V2010:07:11 11:05:50
p2219
aV0704
p2220
aa(lp2221
V2010:07:14 16:45:03
p2222
aV0714
p2223
aa(lp2224
V2010:07:14 16:46:36
p2225
aV0715
p2226
aa(lp2227
V2010:07:14 16:47:48
p2228
aV0716
p2229
aa(lp2230
V2010:07:14 19:56:15
p2231
aV0717
p2232
aa(lp2233
V2010:07:16 17:09:04
p2234
aV0705
p2235
aa(lp2236
V2010:07:16 17:10:53
p2237
aV0721
p2238
aa(lp2239
V2010:07:17 07:41:06
p2240
aV0718
p2241
aa(lp2242
V2010:07:17 16:54:25
p2243
aV0719
p2244
aa(lp2245
V2010:07:18 12:00:13
p2246
aV0706
p2247
aa(lp2248
V2010:07:18 12:42:29
p2249
aV0707
p2250
aa(lp2251
V2010:07:18 13:56:48
p2252
aV0708
p2253
aa(lp2254
V2010:07:18 17:49:17
p2255
aV0709
p2256
aa(lp2257
V2010:07:18 17:50:27
p2258
aV0710
p2259
aa(lp2260
V2010:07:18 17:52:15
p2261
aV0711
p2262
aa(lp2263
V2010:07:18 18:16:12
p2264
aV0712
p2265
aa(lp2266
V2010:07:18 18:17:05
p2267
aV0713
p2268
aa(lp2269
V2010:07:18 19:26:04
p2270
aV0720
p2271
aa(lp2272
V2010:07:19 15:32:11
p2273
aV0723
p2274
aa(lp2275
V2010:07:19 15:32:12
p2276
aV0722
p2277
aa(lp2278
V2010:07:19 15:32:53
p2279
aV0724
p2280
aa(lp2281
V2010:07:19 15:32:54
p2282
aV0725
p2283
aa(lp2284
V2010:07:19 15:33:51
p2285
aV0726
p2286
aa(lp2287
V2010:07:19 15:35:22
p2288
aV0727
p2289
aa(lp2290
V2010:07:19 15:36:10
p2291
aV0728
p2292
aa(lp2293
V2010:07:19 15:36:30
p2294
aV0729
p2295
aa(lp2296
V2010:07:19 15:38:54
p2297
aV0730
p2298
aa(lp2299
V2010:07:19 15:40:00
p2300
aV0731
p2301
aa(lp2302
V2010:07:19 15:40:18
p2303
aV0734
p2304
aa(lp2305
V2010:07:19 15:43:08
p2306
aV0732
p2307
aa(lp2308
V2010:07:19 15:47:53
p2309
aV0733
p2310
aa(lp2311
V2010:07:20 16:27:27
p2312
aV0739
p2313
aa(lp2314
V2010:07:20 16:28:49
p2315
aV0738
p2316
aa(lp2317
V2010:07:20 16:29:16
p2318
aV0740
p2319
aa(lp2320
V2010:07:20 16:36:07
p2321
aV0737
p2322
aa(lp2323
V2010:07:20 16:37:57
p2324
aV0736
p2325
aa(lp2326
V2010:07:20 16:48:41
p2327
aV0735
p2328
aa(lp2329
V2010:07:21 07:41:17
p2330
aV0742
p2331
aa(lp2332
V2010:07:23 10:48:56
p2333
aV0746
p2334
aa(lp2335
V2010:07:24 08:42:35
p2336
aV0743
p2337
aa(lp2338
V2010:07:24 13:38:25
p2339
aV0752
p2340
aa(lp2341
V2010:07:24 13:38:41
p2342
aV0753
p2343
aa(lp2344
V2010:07:24 13:40:05
p2345
aV0747
p2346
aa(lp2347
V2010:07:24 13:44:01
p2348
aV0741
p2349
aa(lp2350
V2010:07:25 11:11:23
p2351
aV0744
p2352
aa(lp2353
V2010:07:25 11:33:14
p2354
aV0745
p2355
aa(lp2356
V2010:07:28 18:42:45
p2357
aV0755
p2358
aa(lp2359
V2010:07:29 14:25:40
p2360
aV0748
p2361
aa(lp2362
V2010:07:29 16:14:36
p2363
aV0749
p2364
aa(lp2365
V2010:07:29 16:16:43
p2366
aV0750
p2367
aa(lp2368
V2010:07:29 16:20:52
p2369
aV0751
p2370
aa(lp2371
V2010:07:31 11:13:53
p2372
aV2736
p2373
aa(lp2374
V2010:07:31 11:13:55
p2375
aV2737
p2376
aa(lp2377
V2010:07:31 11:23:08
p2378
aV2738
p2379
aa(lp2380
V2010:07:31 11:23:10
p2381
aV2739
p2382
aa(lp2383
V2010:07:31 19:28:13
p2384
aV0754
p2385
aa(lp2386
V2010:08:07 16:46:51
p2387
aV0756
p2388
aa(lp2389
V2010:08:08 16:13:47
p2390
aV0757
p2391
aa(lp2392
V2010:08:09 14:44:24
p2393
aV0762
p2394
aa(lp2395
V2010:08:09 14:44:28
p2396
aV0763
p2397
aa(lp2398
V2010:08:09 14:47:20
p2399
aV0764
p2400
aa(lp2401
V2010:08:09 15:14:32
p2402
aV0765
p2403
aa(lp2404
V2010:08:09 15:16:50
p2405
aV0766
p2406
aa(lp2407
V2010:08:09 15:17:54
p2408
aV0767
p2409
aa(lp2410
V2010:08:09 16:12:57
p2411
aV0768
p2412
aa(lp2413
V2010:08:09 18:45:06
p2414
aV0758
p2415
aa(lp2416
V2010:08:12 19:27:21
p2417
aV0759
p2418
aa(lp2419
V2010:08:13 10:05:39
p2420
aV0760
p2421
aa(lp2422
V2010:08:13 16:24:24
p2423
aV0769
p2424
aa(lp2425
V2010:08:14 10:41:55
p2426
aV0770
p2427
aa(lp2428
V2010:08:15 11:48:44
p2429
aV0771
p2430
aa(lp2431
V2010:08:16 08:54:29
p2432
aV0761
p2433
aa(lp2434
V2010:08:16 14:18:40
p2435
aV0772
p2436
aa(lp2437
V2010:08:16 14:26:45
p2438
aV0773
p2439
aa(lp2440
V2010:08:16 14:27:51
p2441
aV0774
p2442
aa(lp2443
V2010:08:21 19:39:38
p2444
aV0775
p2445
aa(lp2446
V2010:08:22 14:25:38
p2447
aV0778
p2448
aa(lp2449
g2447
aV0779
p2450
aa(lp2451
V2010:08:22 17:55:16
p2452
aV0776
p2453
aa(lp2454
V2010:08:22 17:56:22
p2455
aV0777
p2456
aa(lp2457
V2010:08:26 16:35:55
p2458
aV0780
p2459
aa(lp2460
V2010:08:26 19:58:16
p2461
aV0781
p2462
aa(lp2463
V2010:08:26 19:58:24
p2464
aV0782
p2465
aa(lp2466
V2010:08:26 19:58:39
p2467
aV0783
p2468
aa(lp2469
V2010:08:28 12:45:16
p2470
aV0784
p2471
aa(lp2472
V2010:08:30 08:05:50
p2473
aV0785
p2474
aa(lp2475
V2010:08:30 09:51:16
p2476
aV0786
p2477
aa(lp2478
V2010:09:03 15:44:15
p2479
aV0789
p2480
aa(lp2481
V2010:09:04 07:35:12
p2482
aV0788
p2483
aa(lp2484
V2010:09:04 13:25:42
p2485
aV0787
p2486
aa(lp2487
V2010:09:07 13:00:00
p2488
aV0790
p2489
aa(lp2490
V2010:09:07 13:00:00
p2491
aV0791
p2492
aa(lp2493
V2010:09:07 13:00:00
p2494
aV0792
p2495
aa(lp2496
V2010:09:07 13:00:00
p2497
aV0793
p2498
aa(lp2499
V2010:09:07 13:00:00
p2500
aV0794
p2501
aa(lp2502
V2010:09:07 13:00:00
p2503
aV0795
p2504
aa(lp2505
V2010:09:07 13:00:00
p2506
aV0796
p2507
aa(lp2508
V2010:09:07 13:00:00
p2509
aV0797
p2510
aa(lp2511
V2010:09:07 13:00:00
p2512
aV0798
p2513
aa(lp2514
V2010:09:07 13:00:00
p2515
aV0799
p2516
aa(lp2517
V2010:09:07 13:00:00
p2518
aV0800
p2519
aa(lp2520
V2010:09:07 13:00:00
p2521
aV0801
p2522
aa(lp2523
V2010:09:07 13:00:00
p2524
aV0802
p2525
aa(lp2526
V2010:09:07 13:00:00
p2527
aV0803
p2528
aa(lp2529
V2010:09:07 13:00:00
p2530
aV0804
p2531
aa(lp2532
V2010:09:07 13:00:00
p2533
aV0805
p2534
aa(lp2535
V2010:09:07 13:00:00
p2536
aV0806
p2537
aa(lp2538
V2010:09:08 07:05:31
p2539
aV0807
p2540
aa(lp2541
V2010:09:10 10:20:36
p2542
aV0814
p2543
aa(lp2544
V2010:09:10 10:20:40
p2545
aV0815
p2546
aa(lp2547
V2010:09:11 12:06:46
p2548
aV0812
p2549
aa(lp2550
V2010:09:11 12:16:53
p2551
aV0811
p2552
aa(lp2553
V2010:09:11 12:22:14
p2554
aV0810
p2555
aa(lp2556
V2010:09:11 12:24:51
p2557
aV0809
p2558
aa(lp2559
V2010:09:11 19:02:58
p2560
aV0808
p2561
aa(lp2562
V2010:09:12 17:53:36
p2563
aV0813
p2564
aa(lp2565
V2010:09:19 10:04:29
p2566
aV0816
p2567
aa(lp2568
V2010:09:25 18:24:34
p2569
aV0819
p2570
aa(lp2571
V2010:09:25 18:24:39
p2572
aV0817
p2573
aa(lp2574
g2572
aV0818
p2575
aa(lp2576
V2010:09:28 08:15:19
p2577
aV0827
p2578
aa(lp2579
V2010:09:30 10:33:09
p2580
aV0820
p2581
aa(lp2582
V2010:09:30 12:41:10
p2583
aV0825
p2584
aa(lp2585
V2010:09:30 17:31:47
p2586
aV0826
p2587
aa(lp2588
V2010:10:02 11:11:03
p2589
aV0824
p2590
aa(lp2591
V2010:10:02 11:11:08
p2592
aV0823
p2593
aa(lp2594
V2010:10:02 11:11:15
p2595
aV0822
p2596
aa(lp2597
V2010:10:02 11:11:20
p2598
aV0821
p2599
aa(lp2600
V2010:10:04 12:22:20
p2601
aV0829
p2602
aa(lp2603
V2010:10:06 16:05:05
p2604
aV0828
p2605
aa(lp2606
V2010:10:09 07:13:10
p2607
aV0851
p2608
aa(lp2609
V2010:10:09 07:13:16
p2610
aV0850
p2611
aa(lp2612
V2010:10:09 09:55:54
p2613
aV0830
p2614
aa(lp2615
V2010:10:09 09:57:26
p2616
aV0831
p2617
aa(lp2618
V2010:10:09 10:01:54
p2619
aV0832
p2620
aa(lp2621
V2010:10:09 10:03:10
p2622
aV0833
p2623
aa(lp2624
V2010:10:09 10:05:39
p2625
aV0834
p2626
aa(lp2627
V2010:10:09 10:06:19
p2628
aV0835
p2629
aa(lp2630
V2010:10:09 10:09:16
p2631
aV0836
p2632
aa(lp2633
V2010:10:09 11:11:48
p2634
aV0837
p2635
aa(lp2636
V2010:10:09 13:16:50
p2637
aV0838
p2638
aa(lp2639
V2010:10:10 09:34:04
p2640
aV0839
p2641
aa(lp2642
V2010:10:10 15:45:29
p2643
aV0840
p2644
aa(lp2645
V2010:10:10 15:57:25
p2646
aV0841
p2647
aa(lp2648
V2010:10:10 16:39:14
p2649
aV0842
p2650
aa(lp2651
V2010:10:10 16:40:25
p2652
aV0843
p2653
aa(lp2654
V2010:10:10 16:43:14
p2655
aV0844
p2656
aa(lp2657
V2010:10:10 16:46:42
p2658
aV0845
p2659
aa(lp2660
V2010:10:12 15:32:22
p2661
aV0846
p2662
aa(lp2663
V2010:10:16 10:34:37
p2664
aV0847
p2665
aa(lp2666
V2010:10:16 11:12:47
p2667
aV0848
p2668
aa(lp2669
V2010:10:17 16:16:01
p2670
aV0849
p2671
aa(lp2672
V2010:10:18 12:31:57
p2673
aV0858
p2674
aa(lp2675
V2010:10:25 15:37:08
p2676
aV0854
p2677
aa(lp2678
V2010:10:26 07:21:10
p2679
aV2310
p2680
aa(lp2681
V2010:10:26 08:51:18
p2682
aV0859
p2683
aa(lp2684
V2010:10:26 19:43:57
p2685
aV0852
p2686
aa(lp2687
g2685
aV0853
p2688
aa(lp2689
V2010:10:30 08:37:07
p2690
aV0855
p2691
aa(lp2692
V2010:10:30 11:39:37
p2693
aV0860
p2694
aa(lp2695
V2010:10:30 11:53:15
p2696
aV0861
p2697
aa(lp2698
V2010:10:30 13:49:16
p2699
aV0856
p2700
aa(lp2701
V2010:10:30 13:49:57
p2702
aV0857
p2703
aa(lp2704
V2010:10:30 14:16:41
p2705
aV0862
p2706
aa(lp2707
V2010:10:31 07:34:29
p2708
aV0863
p2709
aa(lp2710
V2010:10:31 07:36:58
p2711
aV0864
p2712
aa(lp2713
V2010:11:02 18:48:17
p2714
aV0865
p2715
aa(lp2716
V2010:11:02 18:49:34
p2717
aV0866
p2718
aa(lp2719
V2010:11:04 08:14:02
p2720
aV0874
p2721
aa(lp2722
V2010:11:04 21:06:49
p2723
aV0867
p2724
aa(lp2725
V2010:11:05 14:14:03
p2726
aV0868
p2727
aa(lp2728
g2726
aV0869
p2729
aa(lp2730
V2010:11:05 16:32:48
p2731
aV0870
p2732
aa(lp2733
V2010:11:07 14:02:00
p2734
aV0871
p2735
aa(lp2736
V2010:11:08 09:21:53
p2737
aV0875
p2738
aa(lp2739
V2010:11:08 15:36:51
p2740
aV0872
p2741
aa(lp2742
V2010:11:11 08:11:41
p2743
aV0873
p2744
aa(lp2745
V2010:11:11 09:50:05
p2746
aV0876
p2747
aa(lp2748
V2010:11:11 09:50:45
p2749
aV0877
p2750
aa(lp2751
V2010:11:11 09:51:29
p2752
aV0878
p2753
aa(lp2754
V2010:11:11 09:54:03
p2755
aV0879
p2756
aa(lp2757
V2010:11:11 09:54:43
p2758
aV0880
p2759
aa(lp2760
V2010:11:11 09:59:28
p2761
aV0881
p2762
aa(lp2763
V2010:11:11 10:01:21
p2764
aV0882
p2765
aa(lp2766
V2010:11:11 10:03:41
p2767
aV0883
p2768
aa(lp2769
V2010:11:11 10:18:30
p2770
aV0884
p2771
aa(lp2772
V2010:11:11 14:06:29
p2773
aV0885
p2774
aa(lp2775
V2010:11:11 14:07:26
p2776
aV0886
p2777
aa(lp2778
V2010:11:11 14:49:52
p2779
aV0887
p2780
aa(lp2781
V2010:11:11 14:51:39
p2782
aV0888
p2783
aa(lp2784
V2010:11:13 14:36:05
p2785
aV0890
p2786
aa(lp2787
V2010:11:13 14:38:16
p2788
aV0891
p2789
aa(lp2790
V2010:11:14 08:55:13
p2791
aV2306
p2792
aa(lp2793
V2010:11:14 12:18:46
p2794
aV0893
p2795
aa(lp2796
V2010:11:14 14:45:32
p2797
aV0889
p2798
aa(lp2799
V2010:11:14 19:25:40
p2800
aV2314
p2801
aa(lp2802
V2010:11:15 09:08:28
p2803
aV0894
p2804
aa(lp2805
V2010:11:15 09:27:58
p2806
aV0895
p2807
aa(lp2808
V2010:11:15 09:29:19
p2809
aV0896
p2810
aa(lp2811
V2010:11:16 09:35:29
p2812
aV0897
p2813
aa(lp2814
V2010:11:16 09:36:22
p2815
aV0898
p2816
aa(lp2817
V2010:11:16 09:53:06
p2818
aV0899
p2819
aa(lp2820
V2010:11:16 09:57:58
p2821
aV0900
p2822
aa(lp2823
V2010:11:16 09:58:37
p2824
aV0901
p2825
aa(lp2826
V2010:11:16 09:58:47
p2827
aV0902
p2828
aa(lp2829
V2010:11:16 10:13:36
p2830
aV0903
p2831
aa(lp2832
V2010:11:16 10:14:30
p2833
aV0904
p2834
aa(lp2835
V2010:11:16 10:17:19
p2836
aV0905
p2837
aa(lp2838
V2010:11:16 10:17:48
p2839
aV0906
p2840
aa(lp2841
V2010:11:16 10:19:38
p2842
aV0907
p2843
aa(lp2844
V2010:11:16 10:21:35
p2845
aV0908
p2846
aa(lp2847
V2010:11:16 14:06:14
p2848
aV0909
p2849
aa(lp2850
V2010:11:16 14:06:32
p2851
aV0910
p2852
aa(lp2853
V2010:11:16 15:09:29
p2854
aV0911
p2855
aa(lp2856
V2010:11:16 15:09:41
p2857
aV0912
p2858
aa(lp2859
V2010:11:16 16:02:09
p2860
aV0913
p2861
aa(lp2862
V2010:11:17 10:57:31
p2863
aV0892
p2864
aa(lp2865
V2010:11:20 16:54:49
p2866
aV0914
p2867
aa(lp2868
V2010:11:23 10:14:34
p2869
aV0915
p2870
aa(lp2871
V2010:11:28 09:31:16
p2872
aV0916
p2873
aa(lp2874
V2010:12:05 09:16:01
p2875
aV0919
p2876
aa(lp2877
V2010:12:05 09:18:21
p2878
aV0920
p2879
aa(lp2880
V2010:12:05 09:25:49
p2881
aV0921
p2882
aa(lp2883
V2010:12:07 18:48:54
p2884
aV0922
p2885
aa(lp2886
V2010:12:07 18:48:59
p2887
aV0923
p2888
aa(lp2889
V2010:12:08 17:18:40
p2890
aV0926
p2891
aa(lp2892
V2010:12:08 18:47:25
p2893
aV0917
p2894
aa(lp2895
V2010:12:11 16:50:22
p2896
aV0927
p2897
aa(lp2898
V2010:12:12 09:45:49
p2899
aV0924
p2900
aa(lp2901
V2010:12:12 12:39:05
p2902
aV0928
p2903
aa(lp2904
V2010:12:12 12:51:56
p2905
aV0929
p2906
aa(lp2907
V2010:12:12 14:01:53
p2908
aV0925
p2909
aa(lp2910
V2010:12:12 16:07:22
p2911
aV0918
p2912
aa(lp2913
V2010:12:15 16:15:36
p2914
aV0944
p2915
aa(lp2916
V2010:12:15 18:26:00
p2917
aV0945
p2918
aa(lp2919
V2010:12:15 18:26:21
p2920
aV0946
p2921
aa(lp2922
V2010:12:16 08:25:04
p2923
aV0930
p2924
aa(lp2925
V2010:12:23 13:26:35
p2926
aV0931
p2927
aa(lp2928
g2926
aV0932
p2929
aa(lp2930
V2010:12:23 16:26:07
p2931
aV0933
p2932
aa(lp2933
V2010:12:23 16:26:07
p2934
aV0934
p2935
aa(lp2936
V2010:12:24 07:15:53
p2937
aV0935
p2938
aa(lp2939
V2010:12:24 12:35:11
p2940
aV0936
p2941
aa(lp2942
V2010:12:24 13:37:46
p2943
aV0947
p2944
aa(lp2945
V2010:12:24 13:42:58
p2946
aV0948
p2947
aa(lp2948
V2010:12:24 14:01:29
p2949
aV0949
p2950
aa(lp2951
V2010:12:24 14:01:46
p2952
aV0950
p2953
aa(lp2954
V2010:12:25 09:25:06
p2955
aV0937
p2956
aa(lp2957
V2010:12:25 10:45:22
p2958
aV0943
p2959
aa(lp2960
V2010:12:25 11:23:20
p2961
aV0938
p2962
aa(lp2963
V2010:12:25 16:51:30
p2964
aV0939
p2965
aa(lp2966
V2010:12:27 11:26:45
p2967
aV0940
p2968
aa(lp2969
V2010:12:27 12:22:11
p2970
aV0941
p2971
aa(lp2972
V2010:12:29 09:54:12
p2973
aV0942
p2974
aa(lp2975
V2010:12:30 18:26:50
p2976
aV0951
p2977
aa(lp2978
V2010:12:31 19:40:01
p2979
aV0952
p2980
aa(lp2981
V2011:01:04 07:28:57
p2982
aV0956
p2983
aa(lp2984
V2011:01:04 15:03:33
p2985
aV0958
p2986
aa(lp2987
V2011:01:09 08:49:43
p2988
aV0959
p2989
aa(lp2990
V2011:01:10 10:32:23
p2991
aV0960
p2992
aa(lp2993
V2011:01:14 19:57:01
p2994
aV0962
p2995
aa(lp2996
V2011:01:16 09:51:54
p2997
aV0957
p2998
aa(lp2999
V2011:01:16 20:52:38
p3000
aV0953
p3001
aa(lp3002
g3000
aV0954
p3003
aa(lp3004
g3000
aV0955
p3005
aa(lp3006
V2011:01:16 20:52:38
p3007
aV0961
p3008
aa(lp3009
V2011:01:16 20:52:44
p3010
aV0963
p3011
aa(lp3012
V2011:01:21 08:28:30
p3013
aV0964
p3014
aa(lp3015
V2011:01:22 09:03:07
p3016
aV0965
p3017
aa(lp3018
V2011:01:23 11:15:58
p3019
aV0966
p3020
aa(lp3021
V2011:01:24 09:48:52
p3022
aV0976
p3023
aa(lp3024
V2011:01:24 13:21:15
p3025
aV0977
p3026
aa(lp3027
V2011:01:24 13:22:23
p3028
aV0970
p3029
aa(lp3030
V2011:01:24 13:22:39
p3031
aV0971
p3032
aa(lp3033
V2011:01:24 13:37:58
p3034
aV0972
p3035
aa(lp3036
V2011:01:26 17:41:45
p3037
aV0973
p3038
aa(lp3039
V2011:01:26 17:42:07
p3040
aV0974
p3041
aa(lp3042
V2011:01:28 18:13:33
p3043
aV0975
p3044
aa(lp3045
V2011:01:29 17:02:58
p3046
aV0967
p3047
aa(lp3048
V2011:01:30 09:30:00
p3049
aV0968
p3050
aa(lp3051
V2011:01:30 13:07:11
p3052
aV0983
p3053
aa(lp3054
V2011:01:30 13:07:29
p3055
aV0984
p3056
aa(lp3057
V2011:01:31 09:27:48
p3058
aV0969
p3059
aa(lp3060
V2011:01:31 14:43:03
p3061
aV0985
p3062
aa(lp3063
V2011:01:31 15:05:04
p3064
aV0986
p3065
aa(lp3066
V2011:01:31 15:05:15
p3067
aV0987
p3068
aa(lp3069
V2011:01:31 15:05:28
p3070
aV0988
p3071
aa(lp3072
V2011:01:31 15:05:46
p3073
aV0989
p3074
aa(lp3075
V2011:01:31 15:07:17
p3076
aV0990
p3077
aa(lp3078
V2011:01:31 15:07:40
p3079
aV0991
p3080
aa(lp3081
V2011:01:31 15:18:16
p3082
aV0992
p3083
aa(lp3084
V2011:01:31 15:18:24
p3085
aV0993
p3086
aa(lp3087
V2011:02:01 13:39:58
p3088
aV0978
p3089
aa(lp3090
V2011:02:01 13:41:37
p3091
aV0979
p3092
aa(lp3093
V2011:02:01 13:43:08
p3094
aV0980
p3095
aa(lp3096
V2011:02:01 13:43:39
p3097
aV0981
p3098
aa(lp3099
V2011:02:01 13:45:49
p3100
aV0982
p3101
aa(lp3102
V2011:02:02 12:04:31
p3103
aV0994
p3104
aa(lp3105
V2011:02:02 12:06:52
p3106
aV0995
p3107
aa(lp3108
V2011:02:02 12:07:33
p3109
aV0996
p3110
aa(lp3111
V2011:02:02 12:10:54
p3112
aV0997
p3113
aa(lp3114
V2011:02:02 12:17:20
p3115
aV3653
p3116
aa(lp3117
V2011:02:02 12:17:20
p3118
aV3653
p3119
aa(lp3120
V2011:02:02 12:17:20
p3121
aV3653
p3122
aa(lp3123
V2011:02:02 12:17:20
p3124
aV3653
p3125
aa(lp3126
V2011:02:02 12:26:40
p3127
aV3653
p3128
aa(lp3129
V2011:02:02 12:26:40
p3130
aV3653
p3131
aa(lp3132
V2011:02:02 12:26:40
p3133
aV3653
p3134
aa(lp3135
V2011:02:02 12:26:40
p3136
aV3653
p3137
aa(lp3138
V2011:02:02 15:11:15
p3139
aV0998
p3140
aa(lp3141
V2011:02:04 11:35:19
p3142
aV0999
p3143
aa(lp3144
V2011:02:05 10:09:02
p3145
aV1006
p3146
aa(lp3147
V2011:02:05 10:09:02
p3148
aV3653
p3149
aa(lp3150
V2011:02:05 10:09:02
p3151
aV3653
p3152
aa(lp3153
V2011:02:05 10:09:02
p3154
aV3653
p3155
aa(lp3156
V2011:02:05 10:09:02
p3157
aV3653
p3158
aa(lp3159
V2011:02:05 17:05:49
p3160
aV1008
p3161
aa(lp3162
V2011:02:05 17:05:49
p3163
aV3653
p3164
aa(lp3165
V2011:02:05 17:05:49
p3166
aV3653
p3167
aa(lp3168
V2011:02:05 17:05:49
p3169
aV3653
p3170
aa(lp3171
V2011:02:05 17:05:49
p3172
aV3653
p3173
aa(lp3174
V2011:02:05 17:05:49
p3175
aV3653
p3176
aa(lp3177
V2011:02:05 17:05:49
p3178
aV3653
p3179
aa(lp3180
V2011:02:05 17:05:49
p3181
aV3653
p3182
aa(lp3183
V2011:02:05 17:05:49
p3184
aV3653
p3185
aa(lp3186
V2011:02:06 16:51:11
p3187
aV1010
p3188
aa(lp3189
V2011:02:06 16:51:11
p3190
aV3653
p3191
aa(lp3192
V2011:02:06 16:51:11
p3193
aV3653
p3194
aa(lp3195
V2011:02:06 16:51:11
p3196
aV3653
p3197
aa(lp3198
V2011:02:06 16:51:11
p3199
aV3653
p3200
aa(lp3201
V2011:02:10 11:09:00
p3202
aV1000
p3203
aa(lp3204
V2011:02:10 11:09:09
p3205
aV3653
p3206
aa(lp3207
V2011:02:10 11:09:09
p3208
aV3653
p3209
aa(lp3210
V2011:02:10 11:09:09
p3211
aV3653
p3212
aa(lp3213
V2011:02:10 11:09:09
p3214
aV3653
p3215
aa(lp3216
V2011:02:12 10:22:53
p3217
aV3653
p3218
aa(lp3219
V2011:02:12 10:22:53
p3220
aV3653
p3221
aa(lp3222
V2011:02:12 10:22:53
p3223
aV3653
p3224
aa(lp3225
V2011:02:12 10:22:53
p3226
aV3653
p3227
aa(lp3228
V2011:02:12 10:22:53
p3229
aV3653
p3230
aa(lp3231
V2011:02:12 10:22:53
p3232
aV3653
p3233
aa(lp3234
V2011:02:12 10:22:53
p3235
aV3653
p3236
aa(lp3237
V2011:02:12 10:22:53
p3238
aV3653
p3239
aa(lp3240
V2011:02:12 10:52:12
p3241
aV1001
p3242
aa(lp3243
V2011:02:12 10:53:00
p3244
aV1002
p3245
aa(lp3246
V2011:02:12 10:53:00
p3247
aV3653
p3248
aa(lp3249
V2011:02:12 10:53:00
p3250
aV3653
p3251
aa(lp3252
V2011:02:12 10:53:00
p3253
aV3653
p3254
aa(lp3255
V2011:02:12 10:53:00
p3256
aV3653
p3257
aa(lp3258
V2011:02:12 10:53:11
p3259
aV1003
p3260
aa(lp3261
V2011:02:12 10:54:49
p3262
aV1004
p3263
aa(lp3264
V2011:02:12 10:54:49
p3265
aV3653
p3266
aa(lp3267
V2011:02:12 10:54:49
p3268
aV3653
p3269
aa(lp3270
V2011:02:12 10:54:49
p3271
aV3653
p3272
aa(lp3273
V2011:02:12 10:54:49
p3274
aV3653
p3275
aa(lp3276
V2011:02:13 16:47:33
p3277
aV1005
p3278
aa(lp3279
V2011:02:13 16:47:33
p3280
aV3653
p3281
aa(lp3282
V2011:02:13 16:47:33
p3283
aV3653
p3284
aa(lp3285
V2011:02:13 16:47:33
p3286
aV3653
p3287
aa(lp3288
V2011:02:13 16:47:33
p3289
aV3653
p3290
aa(lp3291
V2011:02:13 16:48:38
p3292
aV1007
p3293
aa(lp3294
V2011:02:13 16:48:38
p3295
aV3653
p3296
aa(lp3297
V2011:02:13 16:48:38
p3298
aV3653
p3299
aa(lp3300
V2011:02:13 16:48:38
p3301
aV3653
p3302
aa(lp3303
V2011:02:13 16:48:38
p3304
aV3653
p3305
aa(lp3306
V2011:02:13 16:48:57
p3307
aV1009
p3308
aa(lp3309
V2011:02:13 16:48:57
p3310
aV3653
p3311
aa(lp3312
V2011:02:13 16:48:57
p3313
aV3653
p3314
aa(lp3315
V2011:02:13 16:48:57
p3316
aV3653
p3317
aa(lp3318
V2011:02:13 16:48:57
p3319
aV3653
p3320
aa(lp3321
V2011:02:13 16:49:39
p3322
aV1011
p3323
aa(lp3324
V2011:02:13 16:49:39
p3325
aV3653
p3326
aa(lp3327
V2011:02:13 16:49:39
p3328
aV3653
p3329
aa(lp3330
V2011:02:13 16:49:39
p3331
aV3653
p3332
aa(lp3333
V2011:02:13 16:49:39
p3334
aV3653
p3335
aa(lp3336
V2011:02:13 16:50:30
p3337
aV1012
p3338
aa(lp3339
V2011:02:13 16:50:30
p3340
aV3653
p3341
aa(lp3342
V2011:02:13 16:50:30
p3343
aV3653
p3344
aa(lp3345
V2011:02:13 16:50:30
p3346
aV3653
p3347
aa(lp3348
V2011:02:13 16:50:30
p3349
aV3653
p3350
aa(lp3351
V2011:02:14 12:38:49
p3352
aV3653
p3353
aa(lp3354
V2011:02:14 12:38:49
p3355
aV3653
p3356
aa(lp3357
V2011:02:14 12:38:49
p3358
aV3653
p3359
aa(lp3360
V2011:02:14 12:38:49
p3361
aV3653
p3362
aa(lp3363
V2011:02:14 17:16:01
p3364
aV3653
p3365
aa(lp3366
V2011:02:14 17:16:01
p3367
aV3653
p3368
aa(lp3369
V2011:02:14 17:16:01
p3370
aV3653
p3371
aa(lp3372
V2011:02:14 17:16:01
p3373
aV3653
p3374
aa(lp3375
V2011:02:14 17:20:34
p3376
aV1013
p3377
aa(lp3378
V2011:02:14 17:20:34
p3379
aV3653
p3380
aa(lp3381
V2011:02:14 17:20:34
p3382
aV3653
p3383
aa(lp3384
V2011:02:14 17:20:34
p3385
aV3653
p3386
aa(lp3387
V2011:02:14 17:20:34
p3388
aV3653
p3389
aa(lp3390
V2011:02:15 13:07:50
p3391
aV3653
p3392
aa(lp3393
V2011:02:15 13:07:50
p3394
aV3653
p3395
aa(lp3396
V2011:02:15 13:07:50
p3397
aV3653
p3398
aa(lp3399
V2011:02:15 13:07:50
p3400
aV3653
p3401
aa(lp3402
V2011:02:16 17:30:17
p3403
aV3653
p3404
aa(lp3405
V2011:02:16 17:30:17
p3406
aV3653
p3407
aa(lp3408
V2011:02:16 17:30:17
p3409
aV3653
p3410
aa(lp3411
V2011:02:16 17:30:17
p3412
aV3653
p3413
aa(lp3414
V2011:02:18 07:24:58
p3415
aV1014
p3416
aa(lp3417
V2011:02:18 18:35:08
p3418
aV1071
p3419
aa(lp3420
V2011:02:18 18:37:58
p3421
aV1072
p3422
aa(lp3423
V2011:02:18 19:29:11
p3424
aV1015
p3425
aa(lp3426
V2011:02:19 08:53:48
p3427
aV1016
p3428
aa(lp3429
V2011:02:19 11:58:24
p3430
aV1017
p3431
aa(lp3432
V2011:02:19 11:58:24
p3433
aV3653
p3434
aa(lp3435
V2011:02:19 11:58:24
p3436
aV3653
p3437
aa(lp3438
V2011:02:19 11:58:24
p3439
aV3653
p3440
aa(lp3441
V2011:02:19 11:58:24
p3442
aV3653
p3443
aa(lp3444
V2011:02:19 17:08:00
p3445
aV1073
p3446
aa(lp3447
V2011:02:19 17:10:05
p3448
aV1074
p3449
aa(lp3450
V2011:02:20 08:51:26
p3451
aV1018
p3452
aa(lp3453
V2011:02:20 08:51:26
p3454
aV3653
p3455
aa(lp3456
V2011:02:20 08:51:26
p3457
aV3653
p3458
aa(lp3459
V2011:02:20 08:51:26
p3460
aV3653
p3461
aa(lp3462
V2011:02:20 08:51:26
p3463
aV3653
p3464
aa(lp3465
V2011:02:20 08:51:26
p3466
aV3653
p3467
aa(lp3468
V2011:02:20 08:51:26
p3469
aV3653
p3470
aa(lp3471
V2011:02:20 08:51:26
p3472
aV3653
p3473
aa(lp3474
V2011:02:20 08:51:26
p3475
aV3653
p3476
aa(lp3477
V2011:02:20 08:51:26
p3478
aV3653
p3479
aa(lp3480
V2011:02:20 08:51:26
p3481
aV3653
p3482
aa(lp3483
V2011:02:20 08:51:26
p3484
aV3653
p3485
aa(lp3486
V2011:02:20 08:51:26
p3487
aV3653
p3488
aa(lp3489
V2011:02:20 08:53:22
p3490
aV3653
p3491
aa(lp3492
V2011:02:20 08:53:22
p3493
aV3653
p3494
aa(lp3495
V2011:02:20 08:53:22
p3496
aV3653
p3497
aa(lp3498
V2011:02:20 08:53:22
p3499
aV3653
p3500
aa(lp3501
V2011:02:20 08:53:22
p3502
aV3653
p3503
aa(lp3504
V2011:02:20 08:53:22
p3505
aV3653
p3506
aa(lp3507
V2011:02:20 08:53:22
p3508
aV3653
p3509
aa(lp3510
V2011:02:20 08:53:22
p3511
aV3653
p3512
aa(lp3513
V2011:02:20 08:53:22
p3514
aV3653
p3515
aa(lp3516
V2011:02:20 08:53:22
p3517
aV3653
p3518
aa(lp3519
V2011:02:20 08:53:22
p3520
aV3653
p3521
aa(lp3522
V2011:02:20 08:53:22
p3523
aV3653
p3524
aa(lp3525
V2011:02:20 08:53:22
p3526
aV3653
p3527
aa(lp3528
V2011:02:20 08:53:22
p3529
aV3653
p3530
aa(lp3531
V2011:02:20 08:53:22
p3532
aV3653
p3533
aa(lp3534
V2011:02:20 08:53:22
p3535
aV3653
p3536
aa(lp3537
V2011:02:20 08:53:22
p3538
aV3653
p3539
aa(lp3540
V2011:02:20 08:53:22
p3541
aV3653
p3542
aa(lp3543
V2011:02:20 08:53:22
p3544
aV3653
p3545
aa(lp3546
V2011:02:20 08:53:22
p3547
aV3653
p3548
aa(lp3549
V2011:02:20 08:53:22
p3550
aV3653
p3551
aa(lp3552
V2011:02:20 08:53:22
p3553
aV3653
p3554
aa(lp3555
V2011:02:20 08:53:22
p3556
aV3653
p3557
aa(lp3558
V2011:02:20 08:53:22
p3559
aV3653
p3560
aa(lp3561
V2011:02:20 08:53:22
p3562
aV3653
p3563
aa(lp3564
V2011:02:20 08:53:22
p3565
aV3653
p3566
aa(lp3567
V2011:02:20 08:53:22
p3568
aV3653
p3569
aa(lp3570
V2011:02:20 08:53:22
p3571
aV3653
p3572
aa(lp3573
V2011:02:20 08:53:22
p3574
aV3653
p3575
aa(lp3576
V2011:02:20 08:53:22
p3577
aV3653
p3578
aa(lp3579
V2011:02:20 08:53:22
p3580
aV3653
p3581
aa(lp3582
V2011:02:20 08:53:22
p3583
aV3653
p3584
aa(lp3585
V2011:02:20 08:53:22
p3586
aV3653
p3587
aa(lp3588
V2011:02:20 08:53:22
p3589
aV3653
p3590
aa(lp3591
V2011:02:20 08:53:22
p3592
aV3653
p3593
aa(lp3594
V2011:02:20 08:53:22
p3595
aV3653
p3596
aa(lp3597
V2011:02:20 08:53:22
p3598
aV3653
p3599
aa(lp3600
V2011:02:20 08:53:22
p3601
aV3653
p3602
aa(lp3603
V2011:02:20 08:53:22
p3604
aV3653
p3605
aa(lp3606
V2011:02:20 08:53:22
p3607
aV3653
p3608
aa(lp3609
V2011:02:20 08:53:22
p3610
aV3653
p3611
aa(lp3612
V2011:02:20 08:53:22
p3613
aV3653
p3614
aa(lp3615
V2011:02:20 08:53:22
p3616
aV3653
p3617
aa(lp3618
V2011:02:20 08:53:22
p3619
aV3653
p3620
aa(lp3621
V2011:02:20 08:53:22
p3622
aV3653
p3623
aa(lp3624
V2011:02:20 08:53:22
p3625
aV3653
p3626
aa(lp3627
V2011:02:20 08:53:22
p3628
aV3653
p3629
aa(lp3630
V2011:02:20 08:53:22
p3631
aV3653
p3632
aa(lp3633
V2011:02:20 08:53:22
p3634
aV3653
p3635
aa(lp3636
V2011:02:20 08:53:22
p3637
aV3653
p3638
aa(lp3639
V2011:02:20 08:53:22
p3640
aV3653
p3641
aa(lp3642
V2011:02:20 08:53:22
p3643
aV3653
p3644
aa(lp3645
V2011:02:20 08:53:22
p3646
aV3653
p3647
aa(lp3648
V2011:02:20 08:53:22
p3649
aV3653
p3650
aa(lp3651
V2011:02:20 08:53:22
p3652
aV3653
p3653
aa(lp3654
V2011:02:20 08:53:22
p3655
aV3653
p3656
aa(lp3657
V2011:02:20 08:53:22
p3658
aV3653
p3659
aa(lp3660
V2011:02:20 08:53:22
p3661
aV3653
p3662
aa(lp3663
V2011:02:20 08:53:22
p3664
aV3653
p3665
aa(lp3666
V2011:02:20 08:53:22
p3667
aV3653
p3668
aa(lp3669
V2011:02:20 08:53:22
p3670
aV3653
p3671
aa(lp3672
V2011:02:20 08:53:22
p3673
aV3653
p3674
aa(lp3675
V2011:02:20 08:53:22
p3676
aV3653
p3677
aa(lp3678
V2011:02:20 08:53:22
p3679
aV3653
p3680
aa(lp3681
V2011:02:20 08:53:22
p3682
aV3653
p3683
aa(lp3684
V2011:02:20 08:53:22
p3685
aV3653
p3686
aa(lp3687
V2011:02:20 08:53:22
p3688
aV3653
p3689
aa(lp3690
V2011:02:20 08:53:22
p3691
aV3653
p3692
aa(lp3693
V2011:02:20 08:53:29
p3694
aV1019
p3695
aa(lp3696
V2011:02:20 11:53:58
p3697
aV1020
p3698
aa(lp3699
V2011:02:20 12:06:17
p3700
aV1021
p3701
aa(lp3702
V2011:02:20 12:06:17
p3703
aV3653
p3704
aa(lp3705
V2011:02:20 12:06:17
p3706
aV3653
p3707
aa(lp3708
V2011:02:20 12:06:17
p3709
aV3653
p3710
aa(lp3711
V2011:02:20 12:06:17
p3712
aV3653
p3713
aa(lp3714
V2011:02:20 12:06:17
p3715
aV3653
p3716
aa(lp3717
V2011:02:20 12:06:17
p3718
aV3653
p3719
aa(lp3720
V2011:02:20 12:06:17
p3721
aV3653
p3722
aa(lp3723
V2011:02:20 12:06:17
p3724
aV3653
p3725
aa(lp3726
V2011:02:20 12:07:09
p3727
aV1022
p3728
aa(lp3729
V2011:02:20 12:25:52
p3730
aV1023
p3731
aa(lp3732
V2011:02:21 08:26:25
p3733
aV1024
p3734
aa(lp3735
V2011:02:21 09:23:06
p3736
aV1025
p3737
aa(lp3738
V2011:02:21 10:00:22
p3739
aV1026
p3740
aa(lp3741
V2011:02:21 13:39:17
p3742
aV1029
p3743
aa(lp3744
V2011:02:21 16:01:48
p3745
aV1027
p3746
aa(lp3747
V2011:02:21 16:14:58
p3748
aV1028
p3749
aa(lp3750
V2011:02:22 18:41:06
p3751
aV1030
p3752
aa(lp3753
g3751
aV1031
p3754
aa(lp3755
V2011:02:22 18:45:35
p3756
aV1032
p3757
aa(lp3758
V2011:02:25 16:32:33
p3759
aV1034
p3760
aa(lp3761
V2011:02:25 16:43:01
p3762
aV1035
p3763
aa(lp3764
V2011:02:26 08:26:25
p3765
aV1036
p3766
aa(lp3767
V2011:02:26 11:17:36
p3768
aV1037
p3769
aa(lp3770
V2011:02:26 11:24:59
p3771
aV1038
p3772
aa(lp3773
V2011:02:27 06:48:22
p3774
aV1039
p3775
aa(lp3776
V2011:02:27 07:53:25
p3777
aV1040
p3778
aa(lp3779
V2011:02:27 08:28:37
p3780
aV1041
p3781
aa(lp3782
V2011:02:27 13:28:46
p3783
aV1042
p3784
aa(lp3785
V2011:02:27 16:11:45
p3786
aV1043
p3787
aa(lp3788
V2011:02:28 09:13:18
p3789
aV1056
p3790
aa(lp3791
V2011:02:28 17:49:14
p3792
aV1057
p3793
aa(lp3794
V2011:02:28 17:50:55
p3795
aV1058
p3796
aa(lp3797
V2011:02:28 17:51:10
p3798
aV1059
p3799
aa(lp3800
V2011:03:01 18:48:57
p3801
aV1044
p3802
aa(lp3803
g3801
aV1045
p3804
aa(lp3805
g3801
aV1046
p3806
aa(lp3807
g3801
aV1047
p3808
aa(lp3809
g3801
aV1048
p3810
aa(lp3811
g3801
aV1049
p3812
aa(lp3813
V2011:03:03 07:39:41
p3814
aV1050
p3815
aa(lp3816
V2011:03:03 17:23:58
p3817
aV1051
p3818
aa(lp3819
V2011:03:03 17:28:06
p3820
aV1052
p3821
aa(lp3822
V2011:03:03 17:38:43
p3823
aV1053
p3824
aa(lp3825
V2011:03:04 08:13:06
p3826
aV1054
p3827
aa(lp3828
V2011:03:04 09:15:41
p3829
aV1055
p3830
aa(lp3831
V2011:03:05 08:58:12
p3832
aV1061
p3833
aa(lp3834
V2011:03:05 13:09:03
p3835
aV1060
p3836
aa(lp3837
V2011:03:06 13:12:36
p3838
aV1062
p3839
aa(lp3840
V2011:03:06 13:20:54
p3841
aV1063
p3842
aa(lp3843
V2011:03:06 13:35:51
p3844
aV1064
p3845
aa(lp3846
V2011:03:12 14:00:36
p3847
aV1075
p3848
aa(lp3849
V2011:03:12 14:05:01
p3850
aV1076
p3851
aa(lp3852
V2011:03:12 14:05:08
p3853
aV1077
p3854
aa(lp3855
V2011:03:15 10:05:49
p3856
aV1065
p3857
aa(lp3858
V2011:03:18 11:13:50
p3859
aV1066
p3860
aa(lp3861
V2011:03:21 08:39:57
p3862
aV1067
p3863
aa(lp3864
V2011:03:22 13:16:41
p3865
aV1068
p3866
aa(lp3867
V2011:03:25 08:07:02
p3868
aV1069
p3869
aa(lp3870
V2011:03:26 07:04:52
p3871
aV1078
p3872
aa(lp3873
V2011:03:26 17:39:30
p3874
aV1070
p3875
aa(lp3876
V2011:04:01 11:15:51
p3877
aV1079
p3878
aa(lp3879
g3877
aV1080
p3880
aa(lp3881
V2011:04:01 13:00:46
p3882
aV1081
p3883
aa(lp3884
V2011:04:01 19:07:15
p3885
aV1093
p3886
aa(lp3887
V2011:04:03 12:01:04
p3888
aV1082
p3889
aa(lp3890
V2011:04:03 12:43:06
p3891
aV1083
p3892
aa(lp3893
V2011:04:04 12:49:31
p3894
aV1084
p3895
aa(lp3896
V2011:04:05 13:01:22
p3897
aV1085
p3898
aa(lp3899
V2011:04:05 15:56:46
p3900
aV1086
p3901
aa(lp3902
V2011:04:08 09:36:14
p3903
aV1087
p3904
aa(lp3905
V2011:04:08 09:48:08
p3906
aV1088
p3907
aa(lp3908
V2011:04:09 12:11:07
p3909
aV1089
p3910
aa(lp3911
V2011:04:10 09:24:40
p3912
aV1090
p3913
aa(lp3914
V2011:04:10 13:02:05
p3915
aV1094
p3916
aa(lp3917
V2011:04:10 16:30:42
p3918
aV1091
p3919
aa(lp3920
V2011:04:11 13:06:27
p3921
aV1092
p3922
aa(lp3923
V2011:04:12 08:37:55
p3924
aV1095
p3925
aa(lp3926
V2011:04:13 19:46:14
p3927
aV1096
p3928
aa(lp3929
V2011:04:16 10:46:54
p3930
aV1098
p3931
aa(lp3932
V2011:04:16 11:28:44
p3933
aV1099
p3934
aa(lp3935
V2011:04:16 11:43:53
p3936
aV1100
p3937
aa(lp3938
V2011:04:16 11:55:11
p3939
aV1097
p3940
aa(lp3941
V2011:04:16 12:10:41
p3942
aV1101
p3943
aa(lp3944
V2011:04:16 17:40:00
p3945
aV1102
p3946
aa(lp3947
V2011:04:16 18:12:41
p3948
aV1103
p3949
aa(lp3950
V2011:04:17 09:23:13
p3951
aV1105
p3952
aa(lp3953
V2011:04:17 11:09:16
p3954
aV1104
p3955
aa(lp3956
V2011:04:17 12:05:40
p3957
aV1106
p3958
aa(lp3959
V2011:04:17 13:19:27
p3960
aV1107
p3961
aa(lp3962
V2011:04:17 14:10:52
p3963
aV1108
p3964
aa(lp3965
V2011:04:22 08:23:43
p3966
aV1109
p3967
aa(lp3968
g3966
aV1110
p3969
aa(lp3970
g3966
aV1111
p3971
aa(lp3972
g3966
aV1112
p3973
aa(lp3974
g3966
aV1113
p3975
aa(lp3976
g3966
aV1114
p3977
aa(lp3978
g3966
aV1115
p3979
aa(lp3980
g3966
aV1116
p3981
aa(lp3982
g3966
aV1117
p3983
aa(lp3984
g3966
aV1118
p3985
aa(lp3986
g3966
aV1119
p3987
aa(lp3988
g3966
aV1120
p3989
aa(lp3990
V2011:04:23 10:54:48
p3991
aV1121
p3992
aa(lp3993
V2011:04:23 13:45:11
p3994
aV1122
p3995
aa(lp3996
V2011:04:23 14:00:57
p3997
aV1123
p3998
aa(lp3999
V2011:05:01 12:25:26
p4000
aV1124
p4001
aa(lp4002
g4000
aV1125
p4003
aa(lp4004
g4000
aV1126
p4005
aa(lp4006
g4000
aV1127
p4007
aa(lp4008
g4000
aV1128
p4009
aa(lp4010
g4000
aV1129
p4011
aa(lp4012
g4000
aV1130
p4013
aa(lp4014
g4000
aV1131
p4015
aa(lp4016
g4000
aV1132
p4017
aa(lp4018
g4000
aV1133
p4019
aa(lp4020
g4000
aV1134
p4021
aa(lp4022
g4000
aV1135
p4023
aa(lp4024
V2011:05:01 12:29:20
p4025
aV1136
p4026
aa(lp4027
V2011:05:01 12:44:13
p4028
aV1137
p4029
aa(lp4030
V2011:05:01 13:36:25
p4031
aV1138
p4032
aa(lp4033
V2011:05:01 13:36:59
p4034
aV1139
p4035
aa(lp4036
V2011:05:04 15:25:58
p4037
aV1140
p4038
aa(lp4039
V2011:05:04 15:25:58
p4040
aV1141
p4041
aa(lp4042
V2011:05:04 18:21:27
p4043
aV1142
p4044
aa(lp4045
V2011:05:07 08:25:46
p4046
aV1143
p4047
aa(lp4048
V2011:05:07 19:03:50
p4049
aV1145
p4050
aa(lp4051
V2011:05:08 17:03:26
p4052
aV1144
p4053
aa(lp4054
V2011:05:09 12:16:12
p4055
aV1146
p4056
aa(lp4057
V2011:05:13 12:39:17
p4058
aV1147
p4059
aa(lp4060
V2011:05:14 08:58:32
p4061
aV1148
p4062
aa(lp4063
V2011:05:14 13:52:39
p4064
aV1149
p4065
aa(lp4066
V2011:05:14 18:20:15
p4067
aV1150
p4068
aa(lp4069
V2011:05:14 18:20:18
p4070
aV1151
p4071
aa(lp4072
V2011:05:14 18:20:33
p4073
aV1152
p4074
aa(lp4075
V2011:05:15 08:42:46
p4076
aV1153
p4077
aa(lp4078
V2011:05:17 11:39:57
p4079
aV1154
p4080
aa(lp4081
V2011:05:17 13:51:54
p4082
aV1155
p4083
aa(lp4084
V2011:05:21 16:39:14
p4085
aV1156
p4086
aa(lp4087
V2011:05:22 08:40:37
p4088
aV1157
p4089
aa(lp4090
V2011:05:22 08:44:08
p4091
aV1158
p4092
aa(lp4093
V2011:05:25 17:17:36
p4094
aV1159
p4095
aa(lp4096
V2011:05:27 16:25:57
p4097
aV1161
p4098
aa(lp4099
V2011:05:28 08:54:14
p4100
aV1160
p4101
aa(lp4102
V2011:05:28 16:59:09
p4103
aV1162
p4104
aa(lp4105
V2011:05:29 08:28:00
p4106
aV1163
p4107
aa(lp4108
V2011:05:29 08:35:07
p4109
aV1164
p4110
aa(lp4111
V2011:05:29 16:08:07
p4112
aV1165
p4113
aa(lp4114
V2011:05:29 16:08:07
p4115
aV1166
p4116
aa(lp4117
V2011:05:30 11:44:57
p4118
aV1167
p4119
aa(lp4120
V2011:05:31 16:45:56
p4121
aV1170
p4122
aa(lp4123
V2011:05:31 16:46:52
p4124
aV1168
p4125
aa(lp4126
V2011:06:01 17:13:44
p4127
aV1169
p4128
aa(lp4129
V2011:06:02 11:25:08
p4130
aV1189
p4131
aa(lp4132
V2011:06:03 08:28:24
p4133
aV1171
p4134
aa(lp4135
V2011:06:03 08:32:43
p4136
aV1172
p4137
aa(lp4138
V2011:06:03 13:20:44
p4139
aV1173
p4140
aa(lp4141
V2011:06:06 08:38:41
p4142
aV1174
p4143
aa(lp4144
V2011:06:06 11:45:40
p4145
aV1175
p4146
aa(lp4147
V2011:06:07 08:20:59
p4148
aV1176
p4149
aa(lp4150
g4148
aV1177
p4151
aa(lp4152
g4148
aV1178
p4153
aa(lp4154
g4148
aV1179
p4155
aa(lp4156
g4148
aV1180
p4157
aa(lp4158
g4148
aV1181
p4159
aa(lp4160
g4148
aV1182
p4161
aa(lp4162
g4148
aV1183
p4163
aa(lp4164
g4148
aV1184
p4165
aa(lp4166
g4148
aV1185
p4167
aa(lp4168
V2011:06:17 11:39:47
p4169
aV1186
p4170
aa(lp4171
V2011:06:17 12:34:21
p4172
aV1187
p4173
aa(lp4174
V2011:06:17 12:34:32
p4175
aV1188
p4176
aa(lp4177
V2011:06:19 11:31:07
p4178
aV1190
p4179
aa(lp4180
V2011:06:26 12:46:26
p4181
aV1191
p4182
aa(lp4183
g4181
aV1192
p4184
aa(lp4185
V2011:07:02 12:35:08
p4186
aV1193
p4187
aa(lp4188
V2011:07:04 19:54:46
p4189
aV1194
p4190
aa(lp4191
V2011:07:05 13:14:56
p4192
aV1195
p4193
aa(lp4194
V2011:07:05 13:28:16
p4195
aV1196
p4196
aa(lp4197
V2011:07:07 12:53:42
p4198
aV1201
p4199
aa(lp4200
V2011:07:08 08:23:51
p4201
aV1197
p4202
aa(lp4203
V2011:07:08 08:28:31
p4204
aV1198
p4205
aa(lp4206
V2011:07:08 08:28:48
p4207
aV1199
p4208
aa(lp4209
V2011:07:08 13:07:34
p4210
aV1200
p4211
aa(lp4212
V2011:07:09 08:07:45
p4213
aV1202
p4214
aa(lp4215
V2011:07:09 08:08:01
p4216
aV1203
p4217
aa(lp4218
V2011:07:09 11:25:10
p4219
aV1204
p4220
aa(lp4221
V2011:07:09 13:12:52
p4222
aV1205
p4223
aa(lp4224
V2011:07:09 13:12:53
p4225
aV1206
p4226
aa(lp4227
V2011:07:09 13:45:32
p4228
aV1207
p4229
aa(lp4230
V2011:07:10 08:11:22
p4231
aV1209
p4232
aa(lp4233
V2011:07:10 11:07:52
p4234
aV1210
p4235
aa(lp4236
V2011:07:10 11:08:10
p4237
aV1211
p4238
aa(lp4239
V2011:07:10 11:13:20
p4240
aV1212
p4241
aa(lp4242
V2011:07:10 11:15:33
p4243
aV1213
p4244
aa(lp4245
V2011:07:10 11:26:57
p4246
aV1214
p4247
aa(lp4248
V2011:07:10 12:41:47
p4249
aV1208
p4250
aa(lp4251
V2011:07:10 13:01:28
p4252
aV1215
p4253
aa(lp4254
V2011:07:10 14:02:39
p4255
aV1216
p4256
aa(lp4257
V2011:07:13 18:36:06
p4258
aV1222
p4259
aa(lp4260
V2011:07:14 18:28:43
p4261
aV1223
p4262
aa(lp4263
V2011:07:15 07:52:02
p4264
aV1218
p4265
aa(lp4266
V2011:07:15 11:50:11
p4267
aV1217
p4268
aa(lp4269
V2011:07:15 13:10:22
p4270
aV1219
p4271
aa(lp4272
V2011:07:15 13:10:22
p4273
aV1224
p4274
aa(lp4275
V2011:07:15 18:24:00
p4276
aV1220
p4277
aa(lp4278
V2011:07:15 18:25:49
p4279
aV1221
p4280
aa(lp4281
V2011:07:16 09:18:26
p4282
aV1225
p4283
aa(lp4284
V2011:07:16 09:20:49
p4285
aV1226
p4286
aa(lp4287
V2011:07:16 14:16:31
p4288
aV1227
p4289
aa(lp4290
V2011:07:19 08:04:42
p4291
aV1228
p4292
aa(lp4293
V2011:07:19 08:04:42
p4294
aV3653
p4295
aa(lp4296
V2011:07:19 08:04:42
p4297
aV3653
p4298
aa(lp4299
V2011:07:19 08:04:42
p4300
aV3653
p4301
aa(lp4302
V2011:07:19 08:04:42
p4303
aV3653
p4304
aa(lp4305
V2011:07:19 08:58:51
p4306
aV1229
p4307
aa(lp4308
V2011:07:19 08:58:51
p4309
aV3653
p4310
aa(lp4311
V2011:07:19 08:58:51
p4312
aV3653
p4313
aa(lp4314
V2011:07:19 08:58:51
p4315
aV3653
p4316
aa(lp4317
V2011:07:19 08:58:51
p4318
aV3653
p4319
aa(lp4320
V2011:07:21 18:54:24
p4321
aV1230
p4322
aa(lp4323
V2011:07:22 08:18:03
p4324
aV1232
p4325
aa(lp4326
V2011:07:22 11:05:55
p4327
aV1233
p4328
aa(lp4329
V2011:07:22 11:05:57
p4330
aV1234
p4331
aa(lp4332
V2011:07:22 11:08:39
p4333
aV1235
p4334
aa(lp4335
V2011:07:22 11:08:43
p4336
aV1231
p4337
aa(lp4338
V2011:07:22 17:14:32
p4339
aV1236
p4340
aa(lp4341
V2011:07:23 09:01:10
p4342
aV1237
p4343
aa(lp4344
V2011:07:23 09:51:47
p4345
aV1238
p4346
aa(lp4347
V2011:07:23 13:48:38
p4348
aV1239
p4349
aa(lp4350
V2011:07:23 16:42:31
p4351
aV1240
p4352
aa(lp4353
V2011:07:24 08:54:28
p4354
aV1241
p4355
aa(lp4356
V2011:07:24 10:36:43
p4357
aV1242
p4358
aa(lp4359
V2011:07:26 07:46:26
p4360
aV1243
p4361
aa(lp4362
V2011:07:26 07:46:39
p4363
aV1244
p4364
aa(lp4365
V2011:07:29 12:56:04
p4366
aV1245
p4367
aa(lp4368
V2011:07:30 08:11:59
p4369
aV1246
p4370
aa(lp4371
V2011:07:30 08:41:28
p4372
aV1247
p4373
aa(lp4374
V2011:07:30 13:15:29
p4375
aV1248
p4376
aa(lp4377
V2011:08:01 14:21:52
p4378
aV1249
p4379
aa(lp4380
V2011:08:01 14:21:52
p4381
aV3653
p4382
aa(lp4383
V2011:08:01 14:21:52
p4384
aV3653
p4385
aa(lp4386
V2011:08:01 14:21:52
p4387
aV3653
p4388
aa(lp4389
V2011:08:01 14:21:52
p4390
aV3653
p4391
aa(lp4392
V2011:08:03 10:52:41
p4393
aV1251
p4394
aa(lp4395
V2011:08:03 10:54:20
p4396
aV1252
p4397
aa(lp4398
V2011:08:05 15:45:59
p4399
aV1253
p4400
aa(lp4401
V2011:08:06 07:12:39
p4402
aV1254
p4403
aa(lp4404
V2011:08:06 19:10:34
p4405
aV1255
p4406
aa(lp4407
V2011:08:06 19:10:39
p4408
aV1256
p4409
aa(lp4410
V2011:08:07 08:28:59
p4411
aV1257
p4412
aa(lp4413
V2011:08:07 08:35:33
p4414
aV1258
p4415
aa(lp4416
V2011:08:07 09:08:35
p4417
aV1259
p4418
aa(lp4419
V2011:08:07 09:08:44
p4420
aV1260
p4421
aa(lp4422
V2011:08:07 09:33:12
p4423
aV1261
p4424
aa(lp4425
V2011:08:07 15:52:02
p4426
aV1262
p4427
aa(lp4428
V2011:08:08 06:06:54
p4429
aV1263
p4430
aa(lp4431
V2011:08:08 06:34:02
p4432
aV1264
p4433
aa(lp4434
V2011:08:08 11:44:43
p4435
aV1265
p4436
aa(lp4437
V2011:08:08 11:46:40
p4438
aV1266
p4439
aa(lp4440
V2011:08:08 11:49:06
p4441
aV1267
p4442
aa(lp4443
V2011:08:08 18:08:55
p4444
aV1268
p4445
aa(lp4446
V2011:08:08 18:37:14
p4447
aV1250
p4448
aa(lp4449
V2011:08:08 18:37:14
p4450
aV1269
p4451
aa(lp4452
V2011:08:09 16:27:32
p4453
aV1270
p4454
aa(lp4455
V2011:08:09 17:06:16
p4456
aV1271
p4457
aa(lp4458
V2011:08:16 08:54:38
p4459
aV1272
p4460
aa(lp4461
V2011:08:19 17:43:57
p4462
aV1274
p4463
aa(lp4464
V2011:08:21 10:30:54
p4465
aV1275
p4466
aa(lp4467
V2011:08:21 10:31:21
p4468
aV1273
p4469
aa(lp4470
V2011:08:24 07:33:03
p4471
aV1276
p4472
aa(lp4473
V2011:08:24 08:58:19
p4474
aV1277
p4475
aa(lp4476
V2011:08:24 09:03:39
p4477
aV1278
p4478
aa(lp4479
V2011:08:26 15:16:38
p4480
aV1279
p4481
aa(lp4482
V2011:08:27 09:15:25
p4483
aV1280
p4484
aa(lp4485
V2011:08:27 17:40:19
p4486
aV1282
p4487
aa(lp4488
V2011:08:28 08:43:13
p4489
aV1281
p4490
aa(lp4491
V2011:08:30 19:19:07
p4492
aV1283
p4493
aa(lp4494
V2011:08:31 08:22:42
p4495
aV1284
p4496
aa(lp4497
V2011:08:31 08:39:24
p4498
aV1285
p4499
aa(lp4500
V2011:09:02 08:10:02
p4501
aV1286
p4502
aa(lp4503
V2011:09:02 08:10:02
p4504
aV1287
p4505
aa(lp4506
V2011:09:03 09:07:27
p4507
aV1288
p4508
aa(lp4509
V2011:09:03 09:07:27
p4510
aV1290
p4511
aa(lp4512
V2011:09:03 09:12:05
p4513
aV1289
p4514
aa(lp4515
V2011:09:03 09:12:05
p4516
aV1291
p4517
aa(lp4518
V2011:09:05 11:25:57
p4519
aV1292
p4520
aa(lp4521
V2011:09:05 14:30:42
p4522
aV1293
p4523
aa(lp4524
V2011:09:05 15:10:09
p4525
aV1294
p4526
aa(lp4527
V2011:09:05 15:11:52
p4528
aV1295
p4529
aa(lp4530
V2011:09:05 15:21:31
p4531
aV1296
p4532
aa(lp4533
V2011:09:09 15:41:34
p4534
aV3653
p4535
aa(lp4536
V2011:09:09 15:41:34
p4537
aV3653
p4538
aa(lp4539
V2011:09:09 15:41:34
p4540
aV3653
p4541
aa(lp4542
V2011:09:09 15:41:34
p4543
aV3653
p4544
aa(lp4545
V2011:09:09 15:41:34
p4546
aV3653
p4547
aa(lp4548
V2011:09:09 15:41:34
p4549
aV3653
p4550
aa(lp4551
V2011:09:09 15:41:34
p4552
aV3653
p4553
aa(lp4554
V2011:09:09 15:41:34
p4555
aV3653
p4556
aa(lp4557
V2011:09:09 15:41:34
p4558
aV3653
p4559
aa(lp4560
V2011:09:09 15:41:34
p4561
aV3653
p4562
aa(lp4563
V2011:09:09 15:41:34
p4564
aV3653
p4565
aa(lp4566
V2011:09:09 15:41:34
p4567
aV3653
p4568
aa(lp4569
V2011:09:09 15:51:23
p4570
aV3653
p4571
aa(lp4572
V2011:09:09 15:51:23
p4573
aV3653
p4574
aa(lp4575
V2011:09:09 15:51:23
p4576
aV3653
p4577
aa(lp4578
V2011:09:09 15:51:23
p4579
aV3653
p4580
aa(lp4581
V2011:09:10 08:29:49
p4582
aV1297
p4583
aa(lp4584
V2011:09:10 08:29:49
p4585
aV3653
p4586
aa(lp4587
V2011:09:10 08:29:49
p4588
aV3653
p4589
aa(lp4590
V2011:09:10 08:29:49
p4591
aV3653
p4592
aa(lp4593
V2011:09:10 08:29:49
p4594
aV3653
p4595
aa(lp4596
V2011:09:10 08:35:04
p4597
aV3653
p4598
aa(lp4599
V2011:09:10 08:35:04
p4600
aV3653
p4601
aa(lp4602
V2011:09:10 08:35:04
p4603
aV3653
p4604
aa(lp4605
V2011:09:10 08:35:04
p4606
aV3653
p4607
aa(lp4608
V2011:09:10 08:55:54
p4609
aV1298
p4610
aa(lp4611
V2011:09:10 19:07:13
p4612
aV1300
p4613
aa(lp4614
V2011:09:11 08:43:00
p4615
aV1299
p4616
aa(lp4617
V2011:09:11 08:43:00
p4618
aV3653
p4619
aa(lp4620
V2011:09:11 08:43:00
p4621
aV3653
p4622
aa(lp4623
V2011:09:11 08:43:00
p4624
aV3653
p4625
aa(lp4626
V2011:09:11 08:43:00
p4627
aV3653
p4628
aa(lp4629
V2011:09:11 08:43:00
p4630
aV3653
p4631
aa(lp4632
V2011:09:11 08:43:00
p4633
aV3653
p4634
aa(lp4635
V2011:09:11 08:43:00
p4636
aV3653
p4637
aa(lp4638
V2011:09:11 08:43:00
p4639
aV3653
p4640
aa(lp4641
V2011:09:11 08:43:00
p4642
aV3653
p4643
aa(lp4644
V2011:09:11 08:43:00
p4645
aV3653
p4646
aa(lp4647
V2011:09:11 08:43:00
p4648
aV3653
p4649
aa(lp4650
V2011:09:11 08:43:00
p4651
aV3653
p4652
aa(lp4653
V2011:09:11 10:43:30
p4654
aV3653
p4655
aa(lp4656
V2011:09:11 10:43:30
p4657
aV3653
p4658
aa(lp4659
V2011:09:11 10:43:30
p4660
aV3653
p4661
aa(lp4662
V2011:09:11 10:43:30
p4663
aV3653
p4664
aa(lp4665
V2011:09:11 16:25:49
p4666
aV1303
p4667
aa(lp4668
V2011:09:11 16:27:45
p4669
aV1302
p4670
aa(lp4671
V2011:09:11 17:12:28
p4672
aV1301
p4673
aa(lp4674
V2011:09:12 08:32:33
p4675
aV1304
p4676
aa(lp4677
V2011:09:12 08:43:22
p4678
aV1305
p4679
aa(lp4680
V2011:09:12 08:58:51
p4681
aV1306
p4682
aa(lp4683
V2011:09:12 08:58:51
p4684
aV3653
p4685
aa(lp4686
V2011:09:12 08:58:51
p4687
aV3653
p4688
aa(lp4689
V2011:09:12 08:58:51
p4690
aV3653
p4691
aa(lp4692
V2011:09:12 08:58:51
p4693
aV3653
p4694
aa(lp4695
V2011:09:12 16:51:38
p4696
aV1307
p4697
aa(lp4698
V2011:09:13 08:20:04
p4699
aV1313
p4700
aa(lp4701
V2011:09:13 10:16:05
p4702
aV1308
p4703
aa(lp4704
V2011:09:13 10:26:03
p4705
aV1309
p4706
aa(lp4707
V2011:09:13 15:15:23
p4708
aV1310
p4709
aa(lp4710
V2011:09:13 16:44:24
p4711
aV1311
p4712
aa(lp4713
V2011:09:14 08:17:13
p4714
aV1312
p4715
aa(lp4716
V2011:09:14 08:48:33
p4717
aV1314
p4718
aa(lp4719
V2011:09:24 08:38:38
p4720
aV1315
p4721
aa(lp4722
V2011:09:24 09:15:39
p4723
aV1316
p4724
aa(lp4725
V2011:09:24 14:50:53
p4726
aV1317
p4727
aa(lp4728
V2011:09:24 14:52:12
p4729
aV1318
p4730
aa(lp4731
V2011:09:26 08:53:22
p4732
aV1319
p4733
aa(lp4734
V2011:09:26 10:57:23
p4735
aV1320
p4736
aa(lp4737
V2011:09:28 08:17:45
p4738
aV1321
p4739
aa(lp4740
V2011:09:28 16:30:26
p4741
aV1322
p4742
aa(lp4743
V2011:10:01 09:22:59
p4744
aV1323
p4745
aa(lp4746
V2011:10:01 09:23:06
p4747
aV1324
p4748
aa(lp4749
V2011:10:01 10:10:37
p4750
aV1326
p4751
aa(lp4752
V2011:10:01 10:16:06
p4753
aV1325
p4754
aa(lp4755
V2011:10:01 11:32:48
p4756
aV1327
p4757
aa(lp4758
V2011:10:03 08:45:01
p4759
aV1328
p4760
aa(lp4761
V2011:10:04 15:51:59
p4762
aV1329
p4763
aa(lp4764
V2011:10:04 15:57:47
p4765
aV1330
p4766
aa(lp4767
V2011:10:08 17:14:58
p4768
aV1331
p4769
aa(lp4770
V2011:10:09 10:43:55
p4771
aV1332
p4772
aa(lp4773
V2011:10:09 11:14:28
p4774
aV1333
p4775
aa(lp4776
V2011:10:09 11:57:08
p4777
aV1334
p4778
aa(lp4779
V2011:10:09 13:02:42
p4780
aV1336
p4781
aa(lp4782
V2011:10:09 13:03:06
p4783
aV1337
p4784
aa(lp4785
V2011:10:09 13:07:19
p4786
aV1338
p4787
aa(lp4788
V2011:10:11 10:43:47
p4789
aV1339
p4790
aa(lp4791
V2011:10:11 10:43:56
p4792
aV1340
p4793
aa(lp4794
V2011:10:11 10:51:59
p4795
aV1341
p4796
aa(lp4797
V2011:10:11 12:07:57
p4798
aV1342
p4799
aa(lp4800
V2011:10:11 19:14:10
p4801
aV1335
p4802
aa(lp4803
V2011:10:15 08:28:47
p4804
aV1343
p4805
aa(lp4806
V2011:10:15 08:35:01
p4807
aV1344
p4808
aa(lp4809
V2011:10:15 09:13:55
p4810
aV1345
p4811
aa(lp4812
V2011:10:15 11:47:21
p4813
aV1346
p4814
aa(lp4815
V2011:10:19 08:02:51
p4816
aV1347
p4817
aa(lp4818
V2011:10:19 08:07:12
p4819
aV1348
p4820
aa(lp4821
V2011:10:19 08:09:19
p4822
aV1349
p4823
aa(lp4824
V2011:10:19 08:30:57
p4825
aV1350
p4826
aa(lp4827
V2011:10:21 13:48:25
p4828
aV1356
p4829
aa(lp4830
V2011:10:21 13:48:45
p4831
aV1357
p4832
aa(lp4833
V2011:10:21 13:49:28
p4834
aV1358
p4835
aa(lp4836
V2011:10:21 13:50:44
p4837
aV1359
p4838
aa(lp4839
V2011:10:21 13:53:01
p4840
aV1351
p4841
aa(lp4842
V2011:10:21 13:54:24
p4843
aV1360
p4844
aa(lp4845
V2011:10:21 13:55:23
p4846
aV1361
p4847
aa(lp4848
V2011:10:21 14:10:01
p4849
aV1362
p4850
aa(lp4851
V2011:10:21 14:10:09
p4852
aV1363
p4853
aa(lp4854
V2011:10:21 14:17:05
p4855
aV1364
p4856
aa(lp4857
V2011:10:21 14:19:24
p4858
aV1365
p4859
aa(lp4860
V2011:10:22 16:10:05
p4861
aV1352
p4862
aa(lp4863
V2011:10:22 16:12:31
p4864
aV1353
p4865
aa(lp4866
V2011:10:22 16:14:09
p4867
aV1354
p4868
aa(lp4869
V2011:10:23 07:41:35
p4870
aV1355
p4871
aa(lp4872
V2011:10:23 19:25:38
p4873
aV2312
p4874
aa(lp4875
V2011:10:23 19:25:39
p4876
aV2313
p4877
aa(lp4878
V2011:10:27 18:59:34
p4879
aV1367
p4880
aa(lp4881
V2011:10:27 20:19:42
p4882
aV1366
p4883
aa(lp4884
V2011:10:27 20:19:42
p4885
aV1368
p4886
aa(lp4887
V2011:10:28 09:25:27
p4888
aV1369
p4889
aa(lp4890
V2011:10:28 22:32:38
p4891
aV1376
p4892
aa(lp4893
V2011:10:29 08:37:23
p4894
aV1390
p4895
aa(lp4896
V2011:10:29 08:41:55
p4897
aV1391
p4898
aa(lp4899
V2011:10:29 09:44:16
p4900
aV1395
p4901
aa(lp4902
V2011:10:29 09:45:22
p4903
aV1396
p4904
aa(lp4905
V2011:10:29 09:46:10
p4906
aV1397
p4907
aa(lp4908
V2011:10:29 09:46:39
p4909
aV1398
p4910
aa(lp4911
V2011:10:29 10:28:37
p4912
aV1392
p4913
aa(lp4914
V2011:10:29 10:32:35
p4915
aV1393
p4916
aa(lp4917
V2011:10:29 10:37:12
p4918
aV1394
p4919
aa(lp4920
V2011:10:29 12:19:57
p4921
aV1370
p4922
aa(lp4923
V2011:10:29 12:23:09
p4924
aV1386
p4925
aa(lp4926
V2011:10:29 17:09:45
p4927
aV1387
p4928
aa(lp4929
V2011:10:30 09:18:59
p4930
aV1388
p4931
aa(lp4932
V2011:10:30 15:59:41
p4933
aV1371
p4934
aa(lp4935
V2011:10:30 15:59:41
p4936
aV1389
p4937
aa(lp4938
V2011:10:30 16:14:33
p4939
aV1372
p4940
aa(lp4941
V2011:10:30 16:35:13
p4942
aV1373
p4943
aa(lp4944
V2011:10:30 16:35:41
p4945
aV1374
p4946
aa(lp4947
V2011:10:30 17:04:48
p4948
aV1375
p4949
aa(lp4950
V2011:10:31 09:08:50
p4951
aV1377
p4952
aa(lp4953
V2011:10:31 17:34:55
p4954
aV1385
p4955
aa(lp4956
V2011:10:31 18:06:15
p4957
aV1378
p4958
aa(lp4959
V2011:10:31 18:08:04
p4960
aV1379
p4961
aa(lp4962
V2011:10:31 18:10:54
p4963
aV1380
p4964
aa(lp4965
V2011:10:31 18:47:34
p4966
aV1381
p4967
aa(lp4968
V2011:10:31 18:49:36
p4969
aV1382
p4970
aa(lp4971
V2011:11:02 08:03:43
p4972
aV1383
p4973
aa(lp4974
V2011:11:02 08:03:56
p4975
aV1384
p4976
aa(lp4977
V2011:11:05 09:13:07
p4978
aV1399
p4979
aa(lp4980
V2011:11:05 09:22:25
p4981
aV1400
p4982
aa(lp4983
V2011:11:05 10:29:57
p4984
aV1401
p4985
aa(lp4986
V2011:11:05 11:22:16
p4987
aV1402
p4988
aa(lp4989
V2011:11:05 16:30:35
p4990
aV1403
p4991
aa(lp4992
V2011:11:05 16:30:44
p4993
aV1404
p4994
aa(lp4995
V2011:11:06 08:35:30
p4996
aV1405
p4997
aa(lp4998
V2011:11:06 08:36:18
p4999
aV1406
p5000
aa(lp5001
V2011:11:06 08:36:29
p5002
aV1407
p5003
aa(lp5004
V2011:11:06 14:01:14
p5005
aV1408
p5006
aa(lp5007
V2011:11:06 16:05:52
p5008
aV1409
p5009
aa(lp5010
V2011:11:06 18:51:50
p5011
aV1410
p5012
aa(lp5013
V2011:11:08 10:34:33
p5014
aV1411
p5015
aa(lp5016
g5014
aV1412
p5017
aa(lp5018
V2011:11:08 16:02:20
p5019
aV1413
p5020
aa(lp5021
V2011:11:09 08:14:17
p5022
aV1414
p5023
aa(lp5024
V2011:11:09 08:28:27
p5025
aV1415
p5026
aa(lp5027
V2011:11:10 18:26:50
p5028
aV1416
p5029
aa(lp5030
V2011:11:10 18:27:13
p5031
aV1417
p5032
aa(lp5033
V2011:11:10 18:27:25
p5034
aV1418
p5035
aa(lp5036
V2011:11:12 08:07:32
p5037
aV1419
p5038
aa(lp5039
V2011:11:12 09:27:14
p5040
aV1420
p5041
aa(lp5042
V2011:11:12 09:59:09
p5043
aV1421
p5044
aa(lp5045
V2011:11:12 10:23:54
p5046
aV1422
p5047
aa(lp5048
V2011:11:12 15:26:19
p5049
aV1423
p5050
aa(lp5051
V2011:11:12 16:22:42
p5052
aV1424
p5053
aa(lp5054
V2011:11:13 08:35:26
p5055
aV1425
p5056
aa(lp5057
V2011:11:13 08:36:47
p5058
aV1426
p5059
aa(lp5060
V2011:11:13 08:38:19
p5061
aV1427
p5062
aa(lp5063
V2011:11:13 08:38:23
p5064
aV1428
p5065
aa(lp5066
V2011:11:13 08:42:12
p5067
aV1429
p5068
aa(lp5069
V2011:11:13 09:05:03
p5070
aV1430
p5071
aa(lp5072
V2011:11:13 09:28:04
p5073
aV1431
p5074
aa(lp5075
V2011:11:13 09:29:18
p5076
aV1432
p5077
aa(lp5078
V2011:11:13 09:34:44
p5079
aV1433
p5080
aa(lp5081
V2011:11:13 09:35:56
p5082
aV1434
p5083
aa(lp5084
V2011:11:13 09:45:17
p5085
aV1435
p5086
aa(lp5087
V2011:11:13 09:49:16
p5088
aV1436
p5089
aa(lp5090
V2011:11:13 10:06:34
p5091
aV1437
p5092
aa(lp5093
V2011:11:19 08:35:21
p5094
aV1440
p5095
aa(lp5096
V2011:11:19 17:02:48
p5097
aV1438
p5098
aa(lp5099
V2011:11:19 19:01:21
p5100
aV1439
p5101
aa(lp5102
V2011:11:20 14:57:45
p5103
aV1441
p5104
aa(lp5105
V2011:11:20 14:59:03
p5106
aV1442
p5107
aa(lp5108
V2011:11:23 12:24:27
p5109
aV1450
p5110
aa(lp5111
V2011:11:23 16:40:19
p5112
aV1444
p5113
aa(lp5114
V2011:11:24 08:54:08
p5115
aV1445
p5116
aa(lp5117
V2011:11:24 10:08:32
p5118
aV1446
p5119
aa(lp5120
V2011:11:24 10:23:31
p5121
aV1443
p5122
aa(lp5123
V2011:11:24 15:40:17
p5124
aV1447
p5125
aa(lp5126
V2011:11:24 17:30:01
p5127
aV1448
p5128
aa(lp5129
V2011:11:24 19:23:31
p5130
aV1449
p5131
aa(lp5132
V2011:11:25 08:22:38
p5133
aV1451
p5134
aa(lp5135
V2011:11:25 11:19:26
p5136
aV1452
p5137
aa(lp5138
V2011:11:25 11:23:51
p5139
aV1453
p5140
aa(lp5141
V2011:11:25 12:21:26
p5142
aV1454
p5143
aa(lp5144
V2011:11:26 12:23:42
p5145
aV1456
p5146
aa(lp5147
V2011:11:27 10:25:03
p5148
aV1457
p5149
aa(lp5150
V2011:11:27 16:17:58
p5151
aV1458
p5152
aa(lp5153
V2011:11:27 16:25:29
p5154
aV1459
p5155
aa(lp5156
V2011:11:27 17:05:17
p5157
aV1460
p5158
aa(lp5159
V2011:11:27 17:05:33
p5160
aV1461
p5161
aa(lp5162
V2011:11:28 16:24:13
p5163
aV1455
p5164
aa(lp5165
V2011:12:06 11:39:11
p5166
aV1462
p5167
aa(lp5168
V2011:12:06 11:54:05
p5169
aV1463
p5170
aa(lp5171
V2011:12:07 09:05:38
p5172
aV1464
p5173
aa(lp5174
V2011:12:10 08:55:34
p5175
aV1465
p5176
aa(lp5177
V2011:12:10 08:55:37
p5178
aV1466
p5179
aa(lp5180
V2011:12:10 15:25:04
p5181
aV1467
p5182
aa(lp5183
V2011:12:10 15:47:52
p5184
aV1468
p5185
aa(lp5186
V2011:12:10 16:00:41
p5187
aV1469
p5188
aa(lp5189
V2011:12:10 16:07:47
p5190
aV1476
p5191
aa(lp5192
V2011:12:11 08:53:39
p5193
aV1471
p5194
aa(lp5195
V2011:12:11 10:34:09
p5196
aV1472
p5197
aa(lp5198
V2011:12:11 10:57:22
p5199
aV1473
p5200
aa(lp5201
V2011:12:11 11:04:39
p5202
aV1474
p5203
aa(lp5204
V2011:12:11 15:51:59
p5205
aV1475
p5206
aa(lp5207
V2011:12:11 18:39:17
p5208
aV1470
p5209
aa(lp5210
V2011:12:13 18:57:04
p5211
aV1478
p5212
aa(lp5213
V2011:12:13 18:57:11
p5214
aV1477
p5215
aa(lp5216
V2011:12:13 19:07:31
p5217
aV1479
p5218
aa(lp5219
V2011:12:15 07:33:33
p5220
aV1480
p5221
aa(lp5222
V2011:12:15 07:33:53
p5223
aV1481
p5224
aa(lp5225
V2011:12:17 11:05:53
p5226
aV1482
p5227
aa(lp5228
V2011:12:17 11:08:16
p5229
aV1483
p5230
aa(lp5231
V2011:12:17 11:22:57
p5232
aV1484
p5233
aa(lp5234
V2011:12:17 11:24:19
p5235
aV1485
p5236
aa(lp5237
V2011:12:17 17:57:29
p5238
aV1488
p5239
aa(lp5240
V2011:12:18 09:38:26
p5241
aV1489
p5242
aa(lp5243
V2011:12:18 10:21:19
p5244
aV1487
p5245
aa(lp5246
V2011:12:18 12:29:06
p5247
aV1486
p5248
aa(lp5249
V2011:12:18 18:29:17
p5250
aV1491
p5251
aa(lp5252
V2011:12:20 08:33:33
p5253
aV1490
p5254
aa(lp5255
V2011:12:21 09:46:54
p5256
aV1492
p5257
aa(lp5258
V2011:12:21 09:47:00
p5259
aV1493
p5260
aa(lp5261
V2011:12:23 09:23:45
p5262
aV1497
p5263
aa(lp5264
V2011:12:23 19:31:04
p5265
aV1494
p5266
aa(lp5267
V2011:12:24 08:44:37
p5268
aV1495
p5269
aa(lp5270
V2011:12:24 10:12:09
p5271
aV1496
p5272
aa(lp5273
V2011:12:25 10:02:15
p5274
aV1498
p5275
aa(lp5276
V2011:12:25 15:19:03
p5277
aV1499
p5278
aa(lp5279
V2011:12:25 18:41:06
p5280
aV1500
p5281
aa(lp5282
V2011:12:26 08:50:39
p5283
aV1501
p5284
aa(lp5285
V2011:12:27 11:14:43
p5286
aV1502
p5287
aa(lp5288
g5286
aV1503
p5289
aa(lp5290
V2011:12:30 16:43:46
p5291
aV1504
p5292
aa(lp5293
g5291
aV1505
p5294
aa(lp5295
V2011:12:30 18:11:14
p5296
aV1506
p5297
aa(lp5298
V2011:12:31 08:23:51
p5299
aV1508
p5300
aa(lp5301
V2011:12:31 11:23:29
p5302
aV1507
p5303
aa(lp5304
V2011:12:31 14:59:15
p5305
aV1509
p5306
aa(lp5307
V2011:12:31 19:46:58
p5308
aV1510
p5309
aa(lp5310
g5308
aV1511
p5311
aa(lp5312
V2011:12:31 20:25:58
p5313
aV1512
p5314
aa(lp5315
V2012:01:01 08:55:29
p5316
aV1513
p5317
aa(lp5318
V2012:01:01 09:37:42
p5319
aV1514
p5320
aa(lp5321
V2012:01:01 10:07:52
p5322
aV1515
p5323
aa(lp5324
V2012:01:01 11:01:30
p5325
aV1516
p5326
aa(lp5327
V2012:01:01 12:53:36
p5328
aV1517
p5329
aa(lp5330
V2012:01:02 16:41:47
p5331
aV1519
p5332
aa(lp5333
V2012:01:02 18:27:46
p5334
aV1518
p5335
aa(lp5336
V2012:01:03 09:59:00
p5337
aV1623
p5338
aa(lp5339
V2012:01:03 10:00:12
p5340
aV1624
p5341
aa(lp5342
V2012:01:03 10:00:38
p5343
aV1625
p5344
aa(lp5345
V2012:01:03 10:00:53
p5346
aV1626
p5347
aa(lp5348
V2012:01:03 10:08:11
p5349
aV1627
p5350
aa(lp5351
V2012:01:03 10:15:54
p5352
aV1628
p5353
aa(lp5354
V2012:01:03 10:18:01
p5355
aV1629
p5356
aa(lp5357
V2012:01:03 10:21:35
p5358
aV1630
p5359
aa(lp5360
V2012:01:03 10:42:57
p5361
aV1631
p5362
aa(lp5363
V2012:01:03 11:16:01
p5364
aV1632
p5365
aa(lp5366
V2012:01:03 11:19:49
p5367
aV1633
p5368
aa(lp5369
V2012:01:06 08:33:21
p5370
aV1528
p5371
aa(lp5372
V2012:01:07 10:25:49
p5373
aV1520
p5374
aa(lp5375
V2012:01:07 10:49:38
p5376
aV1526
p5377
aa(lp5378
V2012:01:07 10:52:07
p5379
aV1521
p5380
aa(lp5381
V2012:01:07 10:59:48
p5382
aV1522
p5383
aa(lp5384
V2012:01:07 10:59:59
p5385
aV1527
p5386
aa(lp5387
V2012:01:07 17:11:10
p5388
aV1523
p5389
aa(lp5390
V2012:01:08 09:32:20
p5391
aV1524
p5392
aa(lp5393
V2012:01:08 16:36:42
p5394
aV1525
p5395
aa(lp5396
V2012:01:10 08:36:42
p5397
aV1529
p5398
aa(lp5399
V2012:01:11 08:26:55
p5400
aV1530
p5401
aa(lp5402
V2012:01:11 08:47:00
p5403
aV1531
p5404
aa(lp5405
V2012:01:11 09:15:00
p5406
aV1532
p5407
aa(lp5408
V2012:01:13 19:01:26
p5409
aV1534
p5410
aa(lp5411
V2012:01:14 09:23:27
p5412
aV1533
p5413
aa(lp5414
V2012:01:15 09:16:35
p5415
aV1535
p5416
aa(lp5417
V2012:01:15 09:26:23
p5418
aV1536
p5419
aa(lp5420
V2012:01:15 09:37:34
p5421
aV1537
p5422
aa(lp5423
V2012:01:15 10:26:32
p5424
aV1538
p5425
aa(lp5426
V2012:01:17 08:19:20
p5427
aV1539
p5428
aa(lp5429
V2012:01:24 08:52:03
p5430
aV1540
p5431
aa(lp5432
g5430
aV1541
p5433
aa(lp5434
g5430
aV1542
p5435
aa(lp5436
V2012:01:24 10:34:05
p5437
aV1543
p5438
aa(lp5439
V2012:01:25 08:17:59
p5440
aV1544
p5441
aa(lp5442
V2012:01:25 08:47:15
p5443
aV1545
p5444
aa(lp5445
V2012:01:25 08:47:36
p5446
aV1546
p5447
aa(lp5448
V2012:01:29 07:42:20
p5449
aV1547
p5450
aa(lp5451
V2012:01:29 12:03:53
p5452
aV1551
p5453
aa(lp5454
V2012:01:29 12:05:26
p5455
aV1548
p5456
aa(lp5457
V2012:01:29 12:06:00
p5458
aV1549
p5459
aa(lp5460
V2012:01:29 12:06:12
p5461
aV1550
p5462
aa(lp5463
V2012:01:31 13:27:17
p5464
aV1552
p5465
aa(lp5466
V2012:01:31 13:27:26
p5467
aV1553
p5468
aa(lp5469
V2012:01:31 13:27:34
p5470
aV1554
p5471
aa(lp5472
V2012:02:01 08:33:22
p5473
aV1556
p5474
aa(lp5475
V2012:02:01 18:34:19
p5476
aV1555
p5477
aa(lp5478
V2012:02:03 19:34:43
p5479
aV1557
p5480
aa(lp5481
V2012:02:04 10:52:10
p5482
aV1558
p5483
aa(lp5484
V2012:02:04 15:47:16
p5485
aV1559
p5486
aa(lp5487
V2012:02:05 15:11:36
p5488
aV1560
p5489
aa(lp5490
V2012:02:05 18:46:08
p5491
aV1561
p5492
aa(lp5493
V2012:02:06 07:31:47
p5494
aV1562
p5495
aa(lp5496
V2012:02:06 07:34:22
p5497
aV1563
p5498
aa(lp5499
V2012:02:06 15:14:56
p5500
aV1564
p5501
aa(lp5502
V2012:02:06 15:29:10
p5503
aV1565
p5504
aa(lp5505
V2012:02:06 15:29:12
p5506
aV1566
p5507
aa(lp5508
V2012:02:06 15:30:44
p5509
aV1567
p5510
aa(lp5511
V2012:02:09 18:32:11
p5512
aV1568
p5513
aa(lp5514
V2012:02:09 18:32:22
p5515
aV1569
p5516
aa(lp5517
V2012:02:09 18:56:49
p5518
aV1570
p5519
aa(lp5520
V2012:02:11 18:12:13
p5521
aV1571
p5522
aa(lp5523
V2012:02:12 08:35:41
p5524
aV1572
p5525
aa(lp5526
V2012:02:12 08:35:54
p5527
aV1573
p5528
aa(lp5529
V2012:02:12 11:05:31
p5530
aV1574
p5531
aa(lp5532
V2012:02:12 18:16:35
p5533
aV1575
p5534
aa(lp5535
V2012:02:13 09:04:05
p5536
aV1576
p5537
aa(lp5538
V2012:02:14 08:02:18
p5539
aV1577
p5540
aa(lp5541
V2012:02:17 09:06:20
p5542
aV1578
p5543
aa(lp5544
V2012:02:17 09:06:28
p5545
aV1579
p5546
aa(lp5547
V2012:02:18 11:20:30
p5548
aV1584
p5549
aa(lp5550
V2012:02:19 08:01:46
p5551
aV1585
p5552
aa(lp5553
V2012:02:19 09:42:36
p5554
aV1580
p5555
aa(lp5556
g5554
aV1581
p5557
aa(lp5558
g5554
aV1582
p5559
aa(lp5560
V2012:02:19 09:44:37
p5561
aV1583
p5562
aa(lp5563
V2012:02:21 19:15:45
p5564
aV1586
p5565
aa(lp5566
V2012:02:22 09:03:33
p5567
aV1587
p5568
aa(lp5569
V2012:02:23 08:20:56
p5570
aV1588
p5571
aa(lp5572
V2012:02:23 08:22:42
p5573
aV1589
p5574
aa(lp5575
V2012:02:23 08:41:49
p5576
aV1590
p5577
aa(lp5578
g5576
aV1591
p5579
aa(lp5580
V2012:02:23 10:17:09
p5581
aV1592
p5582
aa(lp5583
V2012:02:23 11:37:31
p5584
aV1593
p5585
aa(lp5586
V2012:02:23 11:38:00
p5587
aV1594
p5588
aa(lp5589
V2012:02:23 16:48:55
p5590
aV1595
p5591
aa(lp5592
g5590
aV1596
p5593
aa(lp5594
V2012:02:23 16:56:48
p5595
aV1597
p5596
aa(lp5597
V2012:02:23 16:56:58
p5598
aV1598
p5599
aa(lp5600
V2012:02:23 16:57:01
p5601
aV1599
p5602
aa(lp5603
V2012:02:26 16:27:15
p5604
aV1600
p5605
aa(lp5606
V2012:02:26 16:27:18
p5607
aV1601
p5608
aa(lp5609
V2012:02:27 15:37:29
p5610
aV1603
p5611
aa(lp5612
V2012:02:29 08:04:45
p5613
aV1602
p5614
aa(lp5615
V2012:03:03 10:16:02
p5616
aV1608
p5617
aa(lp5618
V2012:03:03 11:53:56
p5619
aV1780
p5620
aa(lp5621
V2012:03:03 12:41:41
p5622
aV1781
p5623
aa(lp5624
V2012:03:03 12:42:48
p5625
aV1782
p5626
aa(lp5627
V2012:03:03 12:44:59
p5628
aV1783
p5629
aa(lp5630
V2012:03:03 15:41:30
p5631
aV1604
p5632
aa(lp5633
V2012:03:03 16:14:05
p5634
aV1605
p5635
aa(lp5636
V2012:03:03 16:14:27
p5637
aV1606
p5638
aa(lp5639
V2012:03:03 19:41:00
p5640
aV1607
p5641
aa(lp5642
V2012:03:04 15:20:56
p5643
aV1609
p5644
aa(lp5645
V2012:03:06 10:37:58
p5646
aV1610
p5647
aa(lp5648
V2012:03:06 10:38:33
p5649
aV1611
p5650
aa(lp5651
V2012:03:06 15:50:02
p5652
aV1634
p5653
aa(lp5654
V2012:03:07 16:47:56
p5655
aV1612
p5656
aa(lp5657
g5655
aV1613
p5658
aa(lp5659
V2012:03:08 19:21:47
p5660
aV1614
p5661
aa(lp5662
V2012:03:09 11:24:36
p5663
aV1615
p5664
aa(lp5665
V2012:03:10 08:49:37
p5666
aV1616
p5667
aa(lp5668
V2012:03:10 08:51:42
p5669
aV1617
p5670
aa(lp5671
V2012:03:10 08:54:38
p5672
aV1618
p5673
aa(lp5674
V2012:03:10 13:58:57
p5675
aV1619
p5676
aa(lp5677
V2012:03:11 09:12:50
p5678
aV1620
p5679
aa(lp5680
V2012:03:11 11:27:10
p5681
aV1621
p5682
aa(lp5683
V2012:03:11 11:31:56
p5684
aV1622
p5685
aa(lp5686
V2012:03:11 17:34:23
p5687
aV1635
p5688
aa(lp5689
V2012:03:11 17:34:38
p5690
aV1636
p5691
aa(lp5692
V2012:03:11 17:59:46
p5693
aV1637
p5694
aa(lp5695
g5693
aV1638
p5696
aa(lp5697
V2012:03:11 18:01:17
p5698
aV1639
p5699
aa(lp5700
V2012:03:13 20:37:30
p5701
aV1648
p5702
aa(lp5703
V2012:03:14 18:27:27
p5704
aV1640
p5705
aa(lp5706
V2012:03:14 18:27:35
p5707
aV1641
p5708
aa(lp5709
V2012:03:17 09:06:48
p5710
aV1642
p5711
aa(lp5712
V2012:03:18 10:34:37
p5713
aV1644
p5714
aa(lp5715
V2012:03:18 14:35:46
p5716
aV1643
p5717
aa(lp5718
V2012:03:18 17:20:24
p5719
aV1645
p5720
aa(lp5721
V2012:03:18 17:20:32
p5722
aV1646
p5723
aa(lp5724
V2012:03:18 19:13:34
p5725
aV1647
p5726
aa(lp5727
V2012:03:19 18:43:31
p5728
aV1649
p5729
aa(lp5730
V2012:03:21 08:38:18
p5731
aV1650
p5732
aa(lp5733
V2012:03:24 15:37:12
p5734
aV1651
p5735
aa(lp5736
g5734
aV1652
p5737
aa(lp5738
V2012:03:24 15:59:58
p5739
aV1653
p5740
aa(lp5741
V2012:03:25 08:56:12
p5742
aV1654
p5743
aa(lp5744
V2012:03:25 17:26:57
p5745
aV1655
p5746
aa(lp5747
V2012:03:25 18:27:38
p5748
aV1656
p5749
aa(lp5750
V2012:03:25 18:59:45
p5751
aV1663
p5752
aa(lp5753
V2012:03:26 15:43:50
p5754
aV1671
p5755
aa(lp5756
V2012:03:26 15:43:58
p5757
aV1672
p5758
aa(lp5759
V2012:03:26 15:47:28
p5760
aV1673
p5761
aa(lp5762
V2012:03:26 15:48:55
p5763
aV1674
p5764
aa(lp5765
V2012:03:26 15:52:37
p5766
aV1675
p5767
aa(lp5768
V2012:03:28 08:28:15
p5769
aV1657
p5770
aa(lp5771
V2012:03:28 08:28:24
p5772
aV1658
p5773
aa(lp5774
V2012:03:28 19:24:37
p5775
aV1659
p5776
aa(lp5777
V2012:03:29 18:58:13
p5778
aV1660
p5779
aa(lp5780
V2012:03:30 07:04:13
p5781
aV1661
p5782
aa(lp5783
V2012:03:30 19:09:18
p5784
aV1664
p5785
aa(lp5786
V2012:03:31 08:41:59
p5787
aV1662
p5788
aa(lp5789
V2012:03:31 09:39:36
p5790
aV1665
p5791
aa(lp5792
V2012:03:31 09:46:24
p5793
aV1666
p5794
aa(lp5795
V2012:03:31 11:42:36
p5796
aV1667
p5797
aa(lp5798
V2012:03:31 11:55:50
p5799
aV1668
p5800
aa(lp5801
V2012:03:31 12:09:07
p5802
aV1669
p5803
aa(lp5804
V2012:03:31 12:35:11
p5805
aV1670
p5806
aa(lp5807
V2012:04:01 08:36:31
p5808
aV1676
p5809
aa(lp5810
V2012:04:01 08:37:42
p5811
aV1677
p5812
aa(lp5813
V2012:04:01 10:15:56
p5814
aV1678
p5815
aa(lp5816
V2012:04:01 11:19:23
p5817
aV1679
p5818
aa(lp5819
V2012:04:01 16:13:43
p5820
aV1680
p5821
aa(lp5822
V2012:04:01 16:52:56
p5823
aV1681
p5824
aa(lp5825
V2012:04:01 16:53:16
p5826
aV1682
p5827
aa(lp5828
V2012:04:02 07:18:07
p5829
aV1683
p5830
aa(lp5831
V2012:04:02 08:18:21
p5832
aV1684
p5833
aa(lp5834
V2012:04:07 10:51:45
p5835
aV1685
p5836
aa(lp5837
V2012:04:07 10:52:13
p5838
aV1686
p5839
aa(lp5840
V2012:04:07 10:52:22
p5841
aV1687
p5842
aa(lp5843
V2012:04:07 10:52:26
p5844
aV1688
p5845
aa(lp5846
V2012:04:07 10:52:35
p5847
aV1689
p5848
aa(lp5849
V2012:04:07 11:23:00
p5850
aV1690
p5851
aa(lp5852
V2012:04:07 11:29:22
p5853
aV1774
p5854
aa(lp5855
V2012:04:07 11:29:37
p5856
aV1691
p5857
aa(lp5858
V2012:04:07 11:31:39
p5859
aV1692
p5860
aa(lp5861
V2012:04:07 11:33:32
p5862
aV1693
p5863
aa(lp5864
V2012:04:07 11:42:46
p5865
aV1775
p5866
aa(lp5867
V2012:04:07 11:49:49
p5868
aV1776
p5869
aa(lp5870
V2012:04:07 11:52:24
p5871
aV1694
p5872
aa(lp5873
V2012:04:07 11:53:17
p5874
aV1777
p5875
aa(lp5876
V2012:04:07 11:54:51
p5877
aV1778
p5878
aa(lp5879
V2012:04:07 11:56:56
p5880
aV1779
p5881
aa(lp5882
V2012:04:08 09:26:03
p5883
aV1695
p5884
aa(lp5885
V2012:04:08 09:32:04
p5886
aV1696
p5887
aa(lp5888
V2012:04:08 09:32:23
p5889
aV1697
p5890
aa(lp5891
V2012:04:08 09:39:11
p5892
aV1698
p5893
aa(lp5894
V2012:04:08 09:39:17
p5895
aV1699
p5896
aa(lp5897
V2012:04:08 09:42:32
p5898
aV1700
p5899
aa(lp5900
V2012:04:08 09:50:22
p5901
aV1701
p5902
aa(lp5903
V2012:04:08 17:17:19
p5904
aV1702
p5905
aa(lp5906
V2012:04:09 08:04:52
p5907
aV1703
p5908
aa(lp5909
V2012:04:09 18:28:35
p5910
aV1704
p5911
aa(lp5912
V2012:04:10 17:43:23
p5913
aV1705
p5914
aa(lp5915
V2012:04:12 08:52:45
p5916
aV1706
p5917
aa(lp5918
V2012:04:12 08:53:23
p5919
aV1707
p5920
aa(lp5921
V2012:04:12 10:27:11
p5922
aV1724
p5923
aa(lp5924
V2012:04:12 16:02:03
p5925
aV1708
p5926
aa(lp5927
V2012:04:12 16:33:36
p5928
aV1709
p5929
aa(lp5930
V2012:04:12 16:34:35
p5931
aV1710
p5932
aa(lp5933
V2012:04:12 16:41:12
p5934
aV1711
p5935
aa(lp5936
V2012:04:12 19:25:59
p5937
aV1712
p5938
aa(lp5939
V2012:04:13 08:41:23
p5940
aV1725
p5941
aa(lp5942
V2012:04:13 08:48:15
p5943
aV1726
p5944
aa(lp5945
V2012:04:13 09:14:11
p5946
aV1727
p5947
aa(lp5948
V2012:04:13 10:07:05
p5949
aV1713
p5950
aa(lp5951
V2012:04:13 10:09:01
p5952
aV1714
p5953
aa(lp5954
V2012:04:13 11:51:19
p5955
aV1715
p5956
aa(lp5957
V2012:04:13 14:57:50
p5958
aV1728
p5959
aa(lp5960
V2012:04:13 15:06:07
p5961
aV1729
p5962
aa(lp5963
V2012:04:13 15:14:53
p5964
aV1730
p5965
aa(lp5966
V2012:04:13 15:18:52
p5967
aV1731
p5968
aa(lp5969
V2012:04:13 15:20:02
p5970
aV1732
p5971
aa(lp5972
V2012:04:13 15:56:32
p5973
aV1733
p5974
aa(lp5975
V2012:04:14 09:12:48
p5976
aV1734
p5977
aa(lp5978
V2012:04:14 09:42:13
p5979
aV1716
p5980
aa(lp5981
V2012:04:14 10:08:09
p5982
aV1717
p5983
aa(lp5984
V2012:04:14 11:40:14
p5985
aV1718
p5986
aa(lp5987
V2012:04:14 12:29:45
p5988
aV1735
p5989
aa(lp5990
V2012:04:14 12:52:56
p5991
aV1736
p5992
aa(lp5993
V2012:04:14 15:18:31
p5994
aV1737
p5995
aa(lp5996
V2012:04:14 15:27:17
p5997
aV1719
p5998
aa(lp5999
V2012:04:14 15:41:05
p6000
aV1738
p6001
aa(lp6002
V2012:04:14 15:42:36
p6003
aV1739
p6004
aa(lp6005
V2012:04:14 16:01:30
p6006
aV1740
p6007
aa(lp6008
V2012:04:14 16:06:04
p6009
aV1741
p6010
aa(lp6011
V2012:04:14 16:11:58
p6012
aV1742
p6013
aa(lp6014
V2012:04:14 16:21:10
p6015
aV1720
p6016
aa(lp6017
V2012:04:14 17:51:25
p6018
aV1721
p6019
aa(lp6020
V2012:04:15 09:32:35
p6021
aV1722
p6022
aa(lp6023
V2012:04:15 10:38:26
p6024
aV1743
p6025
aa(lp6026
V2012:04:15 10:40:10
p6027
aV1744
p6028
aa(lp6029
V2012:04:15 11:04:42
p6030
aV1723
p6031
aa(lp6032
V2012:04:16 18:24:13
p6033
aV1748
p6034
aa(lp6035
V2012:04:17 15:25:40
p6036
aV1749
p6037
aa(lp6038
V2012:04:17 15:25:52
p6039
aV1750
p6040
aa(lp6041
V2012:04:17 15:38:16
p6042
aV1751
p6043
aa(lp6044
V2012:04:17 15:38:18
p6045
aV1752
p6046
aa(lp6047
V2012:04:17 16:04:39
p6048
aV1753
p6049
aa(lp6050
V2012:04:17 16:13:48
p6051
aV1754
p6052
aa(lp6053
V2012:04:17 16:16:55
p6054
aV1755
p6055
aa(lp6056
V2012:04:17 16:17:10
p6057
aV1756
p6058
aa(lp6059
V2012:04:17 18:31:26
p6060
aV1757
p6061
aa(lp6062
V2012:04:17 18:31:53
p6063
aV1758
p6064
aa(lp6065
V2012:04:18 08:09:43
p6066
aV1745
p6067
aa(lp6068
V2012:04:18 08:13:37
p6069
aV1746
p6070
aa(lp6071
V2012:04:18 18:13:42
p6072
aV1747
p6073
aa(lp6074
V2012:04:20 19:06:04
p6075
aV1759
p6076
aa(lp6077
V2012:04:20 19:46:12
p6078
aV1760
p6079
aa(lp6080
V2012:04:21 08:35:01
p6081
aV1763
p6082
aa(lp6083
V2012:04:21 08:57:22
p6084
aV1764
p6085
aa(lp6086
V2012:04:21 15:28:34
p6087
aV1761
p6088
aa(lp6089
V2012:04:21 15:31:34
p6090
aV1762
p6091
aa(lp6092
V2012:04:21 16:33:46
p6093
aV1773
p6094
aa(lp6095
V2012:04:21 18:56:31
p6096
aV1765
p6097
aa(lp6098
V2012:04:21 19:09:16
p6099
aV1766
p6100
aa(lp6101
V2012:04:22 09:09:31
p6102
aV1767
p6103
aa(lp6104
V2012:04:22 09:47:59
p6105
aV1768
p6106
aa(lp6107
V2012:04:22 11:08:28
p6108
aV1769
p6109
aa(lp6110
V2012:04:22 11:18:50
p6111
aV1770
p6112
aa(lp6113
V2012:04:22 11:20:43
p6114
aV1771
p6115
aa(lp6116
V2012:04:22 11:54:17
p6117
aV1772
p6118
aa(lp6119
V2012:04:24 16:06:57
p6120
aV1796
p6121
aa(lp6122
V2012:04:25 08:35:28
p6123
aV1784
p6124
aa(lp6125
V2012:04:25 19:19:23
p6126
aV1789
p6127
aa(lp6128
V2012:04:26 16:33:27
p6129
aV1785
p6130
aa(lp6131
g6129
aV1786
p6132
aa(lp6133
V2012:04:28 09:20:44
p6134
aV1788
p6135
aa(lp6136
V2012:04:28 09:27:10
p6137
aV1787
p6138
aa(lp6139
V2012:04:28 17:04:50
p6140
aV1790
p6141
aa(lp6142
V2012:04:28 17:05:10
p6143
aV1791
p6144
aa(lp6145
V2012:04:29 16:18:25
p6146
aV1793
p6147
aa(lp6148
V2012:04:29 17:12:09
p6149
aV1792
p6150
aa(lp6151
V2012:04:29 19:37:35
p6152
aV1794
p6153
aa(lp6154
V2012:04:30 18:58:13
p6155
aV1795
p6156
aa(lp6157
V2012:05:01 11:11:37
p6158
aV1797
p6159
aa(lp6160
V2012:05:01 16:59:42
p6161
aV1798
p6162
aa(lp6163
g6161
aV1799
p6164
aa(lp6165
V2012:05:01 17:12:59
p6166
aV1800
p6167
aa(lp6168
V2012:05:01 18:55:28
p6169
aV1801
p6170
aa(lp6171
V2012:05:02 11:10:03
p6172
aV1802
p6173
aa(lp6174
V2012:05:05 08:47:19
p6175
aV1803
p6176
aa(lp6177
V2012:05:05 09:10:44
p6178
aV1804
p6179
aa(lp6180
V2012:05:05 11:42:07
p6181
aV1805
p6182
aa(lp6183
V2012:05:06 17:01:48
p6184
aV1806
p6185
aa(lp6186
V2012:05:09 08:41:28
p6187
aV1807
p6188
aa(lp6189
V2012:05:09 16:35:15
p6190
aV1815
p6191
aa(lp6192
V2012:05:12 10:04:16
p6193
aV1809
p6194
aa(lp6195
V2012:05:12 10:08:59
p6196
aV1810
p6197
aa(lp6198
V2012:05:12 10:45:58
p6199
aV1808
p6200
aa(lp6201
V2012:05:12 17:44:18
p6202
aV1811
p6203
aa(lp6204
V2012:05:12 19:16:44
p6205
aV1813
p6206
aa(lp6207
V2012:05:13 08:55:51
p6208
aV1814
p6209
aa(lp6210
V2012:05:13 10:58:10
p6211
aV1812
p6212
aa(lp6213
V2012:05:15 18:18:54
p6214
aV1816
p6215
aa(lp6216
V2012:05:18 08:30:52
p6217
aV1817
p6218
aa(lp6219
V2012:05:18 08:57:41
p6220
aV1818
p6221
aa(lp6222
V2012:05:18 14:45:09
p6223
aV1819
p6224
aa(lp6225
V2012:05:19 09:27:26
p6226
aV1820
p6227
aa(lp6228
V2012:05:19 10:04:18
p6229
aV1821
p6230
aa(lp6231
V2012:05:19 10:05:54
p6232
aV1822
p6233
aa(lp6234
V2012:05:19 10:13:16
p6235
aV1826
p6236
aa(lp6237
V2012:05:19 10:17:48
p6238
aV1823
p6239
aa(lp6240
V2012:05:19 10:17:50
p6241
aV1824
p6242
aa(lp6243
V2012:05:19 11:21:47
p6244
aV1825
p6245
aa(lp6246
V2012:05:19 15:19:01
p6247
aV1827
p6248
aa(lp6249
V2012:05:19 16:32:45
p6250
aV1829
p6251
aa(lp6252
V2012:05:19 16:35:24
p6253
aV1828
p6254
aa(lp6255
V2012:05:20 09:58:06
p6256
aV1830
p6257
aa(lp6258
V2012:05:20 10:03:01
p6259
aV1831
p6260
aa(lp6261
V2012:05:23 08:59:20
p6262
aV1832
p6263
aa(lp6264
V2012:05:23 11:04:21
p6265
aV1834
p6266
aa(lp6267
V2012:05:23 11:04:35
p6268
aV1833
p6269
aa(lp6270
V2012:05:26 09:11:30
p6271
aV1835
p6272
aa(lp6273
V2012:05:26 10:11:25
p6274
aV1836
p6275
aa(lp6276
V2012:05:26 16:44:16
p6277
aV1837
p6278
aa(lp6279
V2012:05:26 17:30:29
p6280
aV1838
p6281
aa(lp6282
V2012:05:27 09:33:51
p6283
aV1839
p6284
aa(lp6285
V2012:05:28 07:31:34
p6286
aV1840
p6287
aa(lp6288
V2012:05:28 09:05:43
p6289
aV1841
p6290
aa(lp6291
V2012:05:28 10:27:52
p6292
aV1842
p6293
aa(lp6294
V2012:05:28 10:34:23
p6295
aV1843
p6296
aa(lp6297
V2012:05:28 17:51:59
p6298
aV1844
p6299
aa(lp6300
V2012:05:30 08:35:45
p6301
aV1848
p6302
aa(lp6303
V2012:05:30 09:40:15
p6304
aV1847
p6305
aa(lp6306
V2012:05:30 09:46:44
p6307
aV1846
p6308
aa(lp6309
V2012:05:30 11:10:08
p6310
aV1845
p6311
aa(lp6312
V2012:05:31 10:07:57
p6313
aV1849
p6314
aa(lp6315
V2012:05:31 15:48:10
p6316
aV1850
p6317
aa(lp6318
V2012:06:01 19:44:31
p6319
aV1855
p6320
aa(lp6321
V2012:06:02 11:36:16
p6322
aV1854
p6323
aa(lp6324
V2012:06:02 18:25:21
p6325
aV1853
p6326
aa(lp6327
V2012:06:03 09:16:31
p6328
aV1852
p6329
aa(lp6330
V2012:06:03 11:52:21
p6331
aV1851
p6332
aa(lp6333
V2012:06:05 08:30:57
p6334
aV1860
p6335
aa(lp6336
V2012:06:05 08:47:57
p6337
aV1861
p6338
aa(lp6339
V2012:06:05 16:53:07
p6340
aV1859
p6341
aa(lp6342
V2012:06:05 16:53:22
p6343
aV1858
p6344
aa(lp6345
V2012:06:05 16:53:34
p6346
aV1857
p6347
aa(lp6348
V2012:06:05 17:01:44
p6349
aV1856
p6350
aa(lp6351
V2012:06:10 15:45:46
p6352
aV1862
p6353
aa(lp6354
g6352
aV1863
p6355
aa(lp6356
V2012:06:10 17:11:43
p6357
aV1864
p6358
aa(lp6359
V2012:06:10 17:24:16
p6360
aV1865
p6361
aa(lp6362
V2012:06:10 19:40:45
p6363
aV1866
p6364
aa(lp6365
V2012:06:10 19:51:13
p6366
aV1867
p6367
aa(lp6368
V2012:06:13 08:39:44
p6369
aV1868
p6370
aa(lp6371
V2012:06:13 08:39:47
p6372
aV1869
p6373
aa(lp6374
V2012:06:13 18:09:51
p6375
aV1870
p6376
aa(lp6377
V2012:06:15 18:09:45
p6378
aV1871
p6379
aa(lp6380
V2012:06:15 18:11:12
p6381
aV1872
p6382
aa(lp6383
V2012:06:15 18:11:24
p6384
aV1873
p6385
aa(lp6386
V2012:06:15 20:16:39
p6387
aV1874
p6388
aa(lp6389
V2012:06:16 10:12:04
p6390
aV1875
p6391
aa(lp6392
V2012:06:16 10:12:04
p6393
aV3653
p6394
aa(lp6395
V2012:06:16 10:12:04
p6396
aV3653
p6397
aa(lp6398
V2012:06:16 10:12:04
p6399
aV3653
p6400
aa(lp6401
V2012:06:16 10:12:04
p6402
aV3653
p6403
aa(lp6404
V2012:06:16 15:28:59
p6405
aV1876
p6406
aa(lp6407
V2012:06:17 09:24:46
p6408
aV1879
p6409
aa(lp6410
V2012:06:17 17:22:35
p6411
aV1877
p6412
aa(lp6413
V2012:06:17 17:22:44
p6414
aV1878
p6415
aa(lp6416
V2012:06:18 16:29:36
p6417
aV1883
p6418
aa(lp6419
V2012:06:20 08:36:34
p6420
aV1880
p6421
aa(lp6422
g6420
aV1881
p6423
aa(lp6424
V2012:06:20 11:42:07
p6425
aV1882
p6426
aa(lp6427
V2012:06:23 17:02:05
p6428
aV1884
p6429
aa(lp6430
V2012:06:23 19:10:21
p6431
aV1892
p6432
aa(lp6433
V2012:06:23 20:20:34
p6434
aV1891
p6435
aa(lp6436
V2012:06:24 09:24:22
p6437
aV1890
p6438
aa(lp6439
V2012:06:24 09:38:30
p6440
aV1889
p6441
aa(lp6442
V2012:06:24 11:05:11
p6443
aV1888
p6444
aa(lp6445
V2012:06:24 12:27:02
p6446
aV1887
p6447
aa(lp6448
V2012:06:24 14:00:30
p6449
aV1886
p6450
aa(lp6451
V2012:06:24 16:08:24
p6452
aV1897
p6453
aa(lp6454
V2012:06:24 17:11:10
p6455
aV1885
p6456
aa(lp6457
V2012:06:25 09:54:41
p6458
aV1893
p6459
aa(lp6460
V2012:06:25 09:56:17
p6461
aV1894
p6462
aa(lp6463
V2012:06:25 19:32:17
p6464
aV1895
p6465
aa(lp6466
V2012:06:25 19:32:25
p6467
aV1896
p6468
aa(lp6469
V2012:06:26 10:28:36
p6470
aV1899
p6471
aa(lp6472
V2012:06:27 08:51:44
p6473
aV1900
p6474
aa(lp6475
V2012:06:28 18:22:13
p6476
aV1901
p6477
aa(lp6478
V2012:06:29 18:41:00
p6479
aV1902
p6480
aa(lp6481
V2012:06:29 18:48:26
p6482
aV1903
p6483
aa(lp6484
V2012:06:30 08:04:34
p6485
aV1904
p6486
aa(lp6487
V2012:06:30 10:47:25
p6488
aV1898
p6489
aa(lp6490
V2012:06:30 11:07:42
p6491
aV1905
p6492
aa(lp6493
V2012:07:01 09:18:05
p6494
aV1906
p6495
aa(lp6496
V2012:07:01 14:44:42
p6497
aV1907
p6498
aa(lp6499
V2012:07:03 15:40:34
p6500
aV1911
p6501
aa(lp6502
V2012:07:04 10:36:12
p6503
aV1912
p6504
aa(lp6505
V2012:07:04 11:25:04
p6506
aV1913
p6507
aa(lp6508
V2012:07:04 11:27:57
p6509
aV1914
p6510
aa(lp6511
V2012:07:04 11:38:29
p6512
aV1908
p6513
aa(lp6514
V2012:07:04 11:39:29
p6515
aV1909
p6516
aa(lp6517
V2012:07:04 11:54:45
p6518
aV1915
p6519
aa(lp6520
V2012:07:04 11:56:07
p6521
aV1916
p6522
aa(lp6523
V2012:07:04 12:11:03
p6524
aV1910
p6525
aa(lp6526
V2012:07:04 13:09:50
p6527
aV1917
p6528
aa(lp6529
V2012:07:04 13:13:18
p6530
aV1918
p6531
aa(lp6532
V2012:07:04 16:17:52
p6533
aV1919
p6534
aa(lp6535
V2012:07:05 08:12:10
p6536
aV1920
p6537
aa(lp6538
V2012:07:05 08:27:52
p6539
aV1921
p6540
aa(lp6541
V2012:07:06 07:20:17
p6542
aV1922
p6543
aa(lp6544
V2012:07:10 11:04:29
p6545
aV1923
p6546
aa(lp6547
V2012:07:10 11:05:10
p6548
aV1924
p6549
aa(lp6550
V2012:07:10 19:39:35
p6551
aV1925
p6552
aa(lp6553
V2012:07:11 08:38:15
p6554
aV1926
p6555
aa(lp6556
V2012:07:11 08:47:38
p6557
aV1927
p6558
aa(lp6559
V2012:07:11 09:25:08
p6560
aV1928
p6561
aa(lp6562
V2012:07:11 09:31:45
p6563
aV1929
p6564
aa(lp6565
V2012:07:11 18:48:17
p6566
aV1931
p6567
aa(lp6568
V2012:07:12 10:18:11
p6569
aV1930
p6570
aa(lp6571
V2012:07:12 11:31:28
p6572
aV1932
p6573
aa(lp6574
V2012:07:12 18:57:31
p6575
aV1933
p6576
aa(lp6577
V2012:07:13 12:14:04
p6578
aV1943
p6579
aa(lp6580
V2012:07:13 14:23:55
p6581
aV1944
p6582
aa(lp6583
V2012:07:13 14:25:12
p6584
aV1934
p6585
aa(lp6586
V2012:07:13 14:25:24
p6587
aV1945
p6588
aa(lp6589
V2012:07:13 14:30:11
p6590
aV1946
p6591
aa(lp6592
V2012:07:13 14:30:29
p6593
aV1947
p6594
aa(lp6595
V2012:07:13 14:33:31
p6596
aV1948
p6597
aa(lp6598
V2012:07:13 15:49:06
p6599
aV1949
p6600
aa(lp6601
V2012:07:13 17:06:21
p6602
aV1935
p6603
aa(lp6604
V2012:07:14 08:20:14
p6605
aV1936
p6606
aa(lp6607
V2012:07:14 09:25:42
p6608
aV1937
p6609
aa(lp6610
V2012:07:14 11:12:43
p6611
aV1950
p6612
aa(lp6613
V2012:07:14 14:20:58
p6614
aV1938
p6615
aa(lp6616
V2012:07:15 08:35:46
p6617
aV1951
p6618
aa(lp6619
V2012:07:15 09:02:43
p6620
aV1939
p6621
aa(lp6622
V2012:07:15 11:48:48
p6623
aV1952
p6624
aa(lp6625
V2012:07:15 11:55:40
p6626
aV1953
p6627
aa(lp6628
V2012:07:15 12:03:29
p6629
aV1954
p6630
aa(lp6631
V2012:07:15 12:08:48
p6632
aV1955
p6633
aa(lp6634
V2012:07:15 12:32:46
p6635
aV1956
p6636
aa(lp6637
V2012:07:15 12:32:56
p6638
aV1957
p6639
aa(lp6640
V2012:07:15 12:43:38
p6641
aV1958
p6642
aa(lp6643
V2012:07:15 12:45:51
p6644
aV1959
p6645
aa(lp6646
V2012:07:15 12:48:32
p6647
aV1960
p6648
aa(lp6649
V2012:07:15 12:51:30
p6650
aV1961
p6651
aa(lp6652
V2012:07:15 13:00:43
p6653
aV1940
p6654
aa(lp6655
V2012:07:15 13:04:56
p6656
aV1962
p6657
aa(lp6658
V2012:07:15 13:29:17
p6659
aV1963
p6660
aa(lp6661
V2012:07:15 13:55:34
p6662
aV1964
p6663
aa(lp6664
V2012:07:15 13:59:54
p6665
aV1941
p6666
aa(lp6667
V2012:07:15 14:02:28
p6668
aV1942
p6669
aa(lp6670
V2012:07:18 08:38:09
p6671
aV1965
p6672
aa(lp6673
g6671
aV1966
p6674
aa(lp6675
g6671
aV1967
p6676
aa(lp6677
g6671
aV1968
p6678
aa(lp6679
g6671
aV1969
p6680
aa(lp6681
g6671
aV1970
p6682
aa(lp6683
g6671
aV1971
p6684
aa(lp6685
g6671
aV1972
p6686
aa(lp6687
V2012:07:19 23:14:07
p6688
aV1976
p6689
aa(lp6690
g6688
aV1977
p6691
aa(lp6692
g6688
aV1978
p6693
aa(lp6694
V2012:07:20 13:51:30
p6695
aV1973
p6696
aa(lp6697
g6695
aV1974
p6698
aa(lp6699
g6695
aV1975
p6700
aa(lp6701
V2012:07:21 12:02:43
p6702
aV1979
p6703
aa(lp6704
V2012:07:21 12:02:56
p6705
aV1987
p6706
aa(lp6707
V2012:07:22 09:12:45
p6708
aV1986
p6709
aa(lp6710
V2012:07:22 13:04:22
p6711
aV1985
p6712
aa(lp6713
V2012:07:22 13:07:13
p6714
aV1984
p6715
aa(lp6716
V2012:07:22 13:13:52
p6717
aV1983
p6718
aa(lp6719
V2012:07:22 16:09:34
p6720
aV1982
p6721
aa(lp6722
V2012:07:22 16:57:35
p6723
aV1981
p6724
aa(lp6725
V2012:07:22 17:05:50
p6726
aV1980
p6727
aa(lp6728
V2012:07:25 18:35:56
p6729
aV1988
p6730
aa(lp6731
V2012:07:25 18:36:26
p6732
aV1989
p6733
aa(lp6734
V2012:07:26 08:36:47
p6735
aV1990
p6736
aa(lp6737
V2012:07:26 09:41:47
p6738
aV1991
p6739
aa(lp6740
V2012:07:26 12:39:40
p6741
aV2013
p6742
aa(lp6743
V2012:07:26 12:39:52
p6744
aV2012
p6745
aa(lp6746
V2012:07:26 13:29:40
p6747
aV1992
p6748
aa(lp6749
V2012:07:26 13:29:44
p6750
aV1993
p6751
aa(lp6752
V2012:07:26 13:30:09
p6753
aV1994
p6754
aa(lp6755
V2012:07:26 16:29:47
p6756
aV1995
p6757
aa(lp6758
V2012:07:26 16:52:25
p6759
aV1996
p6760
aa(lp6761
V2012:07:26 19:55:52
p6762
aV1997
p6763
aa(lp6764
V2012:07:26 20:02:18
p6765
aV1998
p6766
aa(lp6767
V2012:07:26 20:04:59
p6768
aV1999
p6769
aa(lp6770
V2012:07:27 08:49:04
p6771
aV2011
p6772
aa(lp6773
V2012:07:27 08:55:44
p6774
aV2010
p6775
aa(lp6776
V2012:07:27 08:55:51
p6777
aV2009
p6778
aa(lp6779
V2012:07:27 09:06:10
p6780
aV2020
p6781
aa(lp6782
V2012:07:27 11:23:53
p6783
aV2000
p6784
aa(lp6785
V2012:07:27 11:33:52
p6786
aV2001
p6787
aa(lp6788
V2012:07:27 11:42:03
p6789
aV2002
p6790
aa(lp6791
V2012:07:27 12:00:29
p6792
aV2019
p6793
aa(lp6794
V2012:07:27 12:06:26
p6795
aV2018
p6796
aa(lp6797
V2012:07:27 17:42:44
p6798
aV2022
p6799
aa(lp6800
V2012:07:28 08:54:55
p6801
aV2017
p6802
aa(lp6803
V2012:07:28 09:01:05
p6804
aV2016
p6805
aa(lp6806
V2012:07:28 09:01:13
p6807
aV2015
p6808
aa(lp6809
V2012:07:28 09:12:41
p6810
aV2007
p6811
aa(lp6812
V2012:07:28 09:26:07
p6813
aV2014
p6814
aa(lp6815
V2012:07:28 12:00:55
p6816
aV2003
p6817
aa(lp6818
V2012:07:28 20:17:51
p6819
aV2004
p6820
aa(lp6821
V2012:07:28 21:06:52
p6822
aV2005
p6823
aa(lp6824
V2012:07:28 21:07:13
p6825
aV2006
p6826
aa(lp6827
V2012:07:29 06:20:56
p6828
aV2021
p6829
aa(lp6830
V2012:07:29 16:58:57
p6831
aV2008
p6832
aa(lp6833
V2012:07:30 11:16:36
p6834
aV2023
p6835
aa(lp6836
V2012:08:01 09:08:45
p6837
aV2024
p6838
aa(lp6839
V2012:08:02 10:21:40
p6840
aV2025
p6841
aa(lp6842
V2012:08:03 07:38:10
p6843
aV2026
p6844
aa(lp6845
V2012:08:03 13:23:39
p6846
aV2027
p6847
aa(lp6848
V2012:08:04 09:58:25
p6849
aV2028
p6850
aa(lp6851
V2012:08:04 10:09:42
p6852
aV2029
p6853
aa(lp6854
V2012:08:04 10:15:33
p6855
aV2030
p6856
aa(lp6857
V2012:08:04 12:15:42
p6858
aV2031
p6859
aa(lp6860
V2012:08:05 08:53:34
p6861
aV2032
p6862
aa(lp6863
V2012:08:05 09:11:15
p6864
aV2033
p6865
aa(lp6866
V2012:08:10 13:33:57
p6867
aV2034
p6868
aa(lp6869
g6867
aV2035
p6870
aa(lp6871
V2012:08:11 14:35:05
p6872
aV2036
p6873
aa(lp6874
V2012:08:12 08:56:02
p6875
aV2038
p6876
aa(lp6877
V2012:08:12 19:25:53
p6878
aV2039
p6879
aa(lp6880
V2012:08:12 19:36:01
p6881
aV2037
p6882
aa(lp6883
V2012:08:13 19:13:44
p6884
aV2040
p6885
aa(lp6886
V2012:08:13 19:15:13
p6887
aV2041
p6888
aa(lp6889
V2012:08:13 19:29:05
p6890
aV2042
p6891
aa(lp6892
V2012:08:15 08:39:02
p6893
aV2043
p6894
aa(lp6895
V2012:08:17 09:05:10
p6896
aV2045
p6897
aa(lp6898
V2012:08:17 09:33:05
p6899
aV2046
p6900
aa(lp6901
V2012:08:17 10:56:59
p6902
aV2047
p6903
aa(lp6904
V2012:08:17 11:41:22
p6905
aV2048
p6906
aa(lp6907
V2012:08:17 11:41:40
p6908
aV2049
p6909
aa(lp6910
V2012:08:17 11:52:41
p6911
aV2050
p6912
aa(lp6913
V2012:08:17 17:02:44
p6914
aV2044
p6915
aa(lp6916
V2012:08:17 19:52:48
p6917
aV2051
p6918
aa(lp6919
V2012:08:17 19:53:32
p6920
aV2052
p6921
aa(lp6922
V2012:08:18 09:38:33
p6923
aV2053
p6924
aa(lp6925
V2012:08:19 09:01:32
p6926
aV2061
p6927
aa(lp6928
V2012:08:19 09:05:33
p6929
aV2060
p6930
aa(lp6931
V2012:08:19 09:12:23
p6932
aV2059
p6933
aa(lp6934
V2012:08:19 09:12:33
p6935
aV2058
p6936
aa(lp6937
V2012:08:19 09:14:51
p6938
aV2057
p6939
aa(lp6940
V2012:08:19 09:51:29
p6941
aV2056
p6942
aa(lp6943
V2012:08:19 10:14:57
p6944
aV2055
p6945
aa(lp6946
V2012:08:19 11:17:59
p6947
aV2054
p6948
aa(lp6949
V2012:08:21 16:25:47
p6950
aV2062
p6951
aa(lp6952
V2012:08:22 11:34:14
p6953
aV2063
p6954
aa(lp6955
V2012:08:23 19:25:01
p6956
aV2064
p6957
aa(lp6958
g6956
aV2065
p6959
aa(lp6960
V2012:08:23 19:25:19
p6961
aV2066
p6962
aa(lp6963
V2012:08:24 10:49:21
p6964
aV2067
p6965
aa(lp6966
V2012:08:25 10:54:02
p6967
aV2073
p6968
aa(lp6969
V2012:08:25 11:52:05
p6970
aV2074
p6971
aa(lp6972
V2012:08:25 12:09:21
p6973
aV2068
p6974
aa(lp6975
V2012:08:25 12:29:35
p6976
aV2069
p6977
aa(lp6978
V2012:08:25 12:54:49
p6979
aV2070
p6980
aa(lp6981
V2012:08:25 13:09:07
p6982
aV2071
p6983
aa(lp6984
V2012:08:25 13:16:46
p6985
aV2072
p6986
aa(lp6987
V2012:08:25 19:33:36
p6988
aV2075
p6989
aa(lp6990
V2012:08:26 08:25:43
p6991
aV2076
p6992
aa(lp6993
V2012:08:26 11:16:37
p6994
aV2077
p6995
aa(lp6996
V2012:08:26 17:20:41
p6997
aV2078
p6998
aa(lp6999
V2012:08:26 17:22:53
p7000
aV2079
p7001
aa(lp7002
V2012:08:28 16:53:59
p7003
aV2080
p7004
aa(lp7005
V2012:08:29 06:43:37
p7006
aV2085
p7007
aa(lp7008
V2012:08:29 06:43:42
p7009
aV2084
p7010
aa(lp7011
V2012:08:29 06:45:40
p7012
aV2083
p7013
aa(lp7014
V2012:08:29 06:45:53
p7015
aV2082
p7016
aa(lp7017
V2012:08:29 07:18:42
p7018
aV2081
p7019
aa(lp7020
V2012:09:01 10:18:40
p7021
aV2086
p7022
aa(lp7023
g7021
aV2087
p7024
aa(lp7025
V2012:09:01 11:22:11
p7026
aV2088
p7027
aa(lp7028
V2012:09:02 11:48:30
p7029
aV2089
p7030
aa(lp7031
V2012:09:02 12:08:33
p7032
aV2090
p7033
aa(lp7034
V2012:09:03 11:44:38
p7035
aV2091
p7036
aa(lp7037
V2012:09:03 11:53:03
p7038
aV2092
p7039
aa(lp7040
V2012:09:03 12:19:30
p7041
aV2093
p7042
aa(lp7043
V2012:09:04 07:25:44
p7044
aV2094
p7045
aa(lp7046
V2012:09:05 07:28:55
p7047
aV2095
p7048
aa(lp7049
V2012:09:08 10:38:18
p7050
aV2096
p7051
aa(lp7052
V2012:09:08 16:23:57
p7053
aV2097
p7054
aa(lp7055
V2012:09:08 16:37:44
p7056
aV2098
p7057
aa(lp7058
V2012:09:10 10:34:29
p7059
aV2099
p7060
aa(lp7061
V2012:09:11 07:31:26
p7062
aV2100
p7063
aa(lp7064
V2012:09:13 09:51:23
p7065
aV2103
p7066
aa(lp7067
V2012:09:16 17:34:10
p7068
aV2101
p7069
aa(lp7070
V2012:09:16 17:34:16
p7071
aV2102
p7072
aa(lp7073
V2012:09:19 19:19:52
p7074
aV2104
p7075
aa(lp7076
V2012:09:20 08:02:30
p7077
aV2105
p7078
aa(lp7079
V2012:09:22 09:14:12
p7080
aV2111
p7081
aa(lp7082
V2012:09:23 11:47:10
p7083
aV2106
p7084
aa(lp7085
V2012:09:23 16:47:19
p7086
aV2107
p7087
aa(lp7088
V2012:09:23 17:27:37
p7089
aV2108
p7090
aa(lp7091
V2012:09:23 17:28:24
p7092
aV2109
p7093
aa(lp7094
V2012:09:23 17:28:35
p7095
aV2110
p7096
aa(lp7097
V2012:09:24 09:48:45
p7098
aV2112
p7099
aa(lp7100
V2012:09:26 09:17:22
p7101
aV2113
p7102
aa(lp7103
V2012:09:28 09:17:35
p7104
aV3653
p7105
aa(lp7106
V2012:09:28 09:17:35
p7107
aV3653
p7108
aa(lp7109
V2012:09:28 09:17:35
p7110
aV3653
p7111
aa(lp7112
V2012:09:28 09:17:35
p7113
aV3653
p7114
aa(lp7115
V2012:09:28 09:17:35
p7116
aV3653
p7117
aa(lp7118
V2012:09:28 09:17:35
p7119
aV3653
p7120
aa(lp7121
V2012:09:28 09:17:35
p7122
aV3653
p7123
aa(lp7124
V2012:09:28 09:17:35
p7125
aV3653
p7126
aa(lp7127
V2012:09:28 09:17:35
p7128
aV3653
p7129
aa(lp7130
V2012:09:28 09:17:35
p7131
aV3653
p7132
aa(lp7133
V2012:09:28 09:17:35
p7134
aV3653
p7135
aa(lp7136
V2012:09:28 09:17:35
p7137
aV3653
p7138
aa(lp7139
V2012:09:28 09:17:35
p7140
aV3653
p7141
aa(lp7142
V2012:09:28 09:17:35
p7143
aV3653
p7144
aa(lp7145
V2012:09:28 09:17:35
p7146
aV3653
p7147
aa(lp7148
V2012:09:28 09:17:35
p7149
aV3653
p7150
aa(lp7151
V2012:09:29 08:08:26
p7152
aV2123
p7153
aa(lp7154
V2012:09:29 11:45:48
p7155
aV2122
p7156
aa(lp7157
V2012:09:29 17:02:19
p7158
aV2121
p7159
aa(lp7160
V2012:09:29 17:02:21
p7161
aV2120
p7162
aa(lp7163
V2012:09:29 17:03:10
p7164
aV2124
p7165
aa(lp7166
V2012:09:29 17:38:26
p7167
aV2119
p7168
aa(lp7169
V2012:09:30 08:37:49
p7170
aV2118
p7171
aa(lp7172
V2012:09:30 10:10:07
p7173
aV2117
p7174
aa(lp7175
V2012:09:30 15:02:05
p7176
aV2116
p7177
aa(lp7178
V2012:09:30 16:26:49
p7179
aV2114
p7180
aa(lp7181
g7179
aV2115
p7182
aa(lp7183
V2012:10:01 07:40:03
p7184
aV2125
p7185
aa(lp7186
V2012:10:01 08:44:58
p7187
aV2126
p7188
aa(lp7189
V2012:10:01 09:42:59
p7190
aV2127
p7191
aa(lp7192
V2012:10:01 10:01:02
p7193
aV2128
p7194
aa(lp7195
V2012:10:03 08:28:55
p7196
aV2129
p7197
aa(lp7198
g7196
aV2130
p7199
aa(lp7200
g7196
aV2131
p7201
aa(lp7202
V2012:10:03 08:33:18
p7203
aV2132
p7204
aa(lp7205
V2012:10:03 08:43:27
p7206
aV2133
p7207
aa(lp7208
V2012:10:05 18:05:15
p7209
aV2136
p7210
aa(lp7211
V2012:10:05 18:06:38
p7212
aV2134
p7213
aa(lp7214
V2012:10:05 18:07:23
p7215
aV2135
p7216
aa(lp7217
V2012:10:05 19:15:44
p7218
aV2137
p7219
aa(lp7220
V2012:10:06 08:27:01
p7221
aV2138
p7222
aa(lp7223
V2012:10:06 09:57:24
p7224
aV2139
p7225
aa(lp7226
V2012:10:06 09:57:36
p7227
aV2140
p7228
aa(lp7229
V2012:10:06 10:06:36
p7230
aV2141
p7231
aa(lp7232
V2012:10:06 12:37:09
p7233
aV2142
p7234
aa(lp7235
V2012:10:06 17:26:21
p7236
aV2143
p7237
aa(lp7238
V2012:10:06 18:48:47
p7239
aV2144
p7240
aa(lp7241
V2012:10:09 07:33:34
p7242
aV2145
p7243
aa(lp7244
V2012:10:09 19:05:32
p7245
aV2146
p7246
aa(lp7247
V2012:10:11 18:47:09
p7248
aV2147
p7249
aa(lp7250
V2012:10:14 10:01:03
p7251
aV2170
p7252
aa(lp7253
V2012:10:14 10:10:44
p7254
aV2169
p7255
aa(lp7256
V2012:10:14 10:14:36
p7257
aV2168
p7258
aa(lp7259
V2012:10:14 10:22:32
p7260
aV2167
p7261
aa(lp7262
V2012:10:14 10:30:40
p7263
aV2166
p7264
aa(lp7265
V2012:10:14 10:33:13
p7266
aV2165
p7267
aa(lp7268
V2012:10:14 10:48:56
p7269
aV2152
p7270
aa(lp7271
V2012:10:14 11:04:36
p7272
aV2156
p7273
aa(lp7274
V2012:10:14 11:11:36
p7275
aV2151
p7276
aa(lp7277
V2012:10:14 11:11:58
p7278
aV2155
p7279
aa(lp7280
V2012:10:14 11:28:52
p7281
aV2157
p7282
aa(lp7283
V2012:10:14 11:37:46
p7284
aV2154
p7285
aa(lp7286
V2012:10:14 11:49:52
p7287
aV2153
p7288
aa(lp7289
V2012:10:14 12:22:52
p7290
aV2164
p7291
aa(lp7292
V2012:10:14 12:34:31
p7293
aV2163
p7294
aa(lp7295
V2012:10:14 12:41:06
p7296
aV2162
p7297
aa(lp7298
V2012:10:14 12:43:09
p7299
aV2161
p7300
aa(lp7301
V2012:10:14 12:43:11
p7302
aV2150
p7303
aa(lp7304
V2012:10:14 12:43:15
p7305
aV2149
p7306
aa(lp7307
V2012:10:14 12:45:11
p7308
aV2160
p7309
aa(lp7310
V2012:10:14 12:48:57
p7311
aV2148
p7312
aa(lp7313
V2012:10:14 13:22:13
p7314
aV2158
p7315
aa(lp7316
V2012:10:14 13:24:53
p7317
aV2159
p7318
aa(lp7319
V2012:10:16 18:51:56
p7320
aV2171
p7321
aa(lp7322
V2012:10:17 08:37:59
p7323
aV2172
p7324
aa(lp7325
V2012:10:17 09:04:56
p7326
aV2173
p7327
aa(lp7328
V2012:10:18 19:34:54
p7329
aV2174
p7330
aa(lp7331
V2012:10:18 19:42:32
p7332
aV2175
p7333
aa(lp7334
V2012:10:20 12:58:58
p7335
aV2176
p7336
aa(lp7337
V2012:10:20 16:57:20
p7338
aV2177
p7339
aa(lp7340
V2012:10:21 11:12:32
p7341
aV2178
p7342
aa(lp7343
V2012:10:21 11:30:01
p7344
aV2179
p7345
aa(lp7346
V2012:10:21 18:16:11
p7347
aV2180
p7348
aa(lp7349
V2012:10:23 12:39:28
p7350
aV2181
p7351
aa(lp7352
V2012:10:24 08:46:23
p7353
aV2183
p7354
aa(lp7355
g7353
aV2184
p7356
aa(lp7357
g7353
aV2185
p7358
aa(lp7359
V2012:10:24 19:04:16
p7360
aV2182
p7361
aa(lp7362
V2012:10:26 06:26:04
p7363
aV2187
p7364
aa(lp7365
V2012:10:26 06:26:19
p7366
aV2188
p7367
aa(lp7368
V2012:10:26 07:15:18
p7369
aV2186
p7370
aa(lp7371
V2012:10:26 12:23:40
p7372
aV2192
p7373
aa(lp7374
V2012:10:26 18:02:32
p7375
aV2189
p7376
aa(lp7377
V2012:10:26 19:03:46
p7378
aV2190
p7379
aa(lp7380
V2012:10:26 19:46:06
p7381
aV2191
p7382
aa(lp7383
V2012:10:27 09:53:19
p7384
aV2196
p7385
aa(lp7386
V2012:10:27 11:51:59
p7387
aV2193
p7388
aa(lp7389
V2012:10:27 11:52:41
p7390
aV2195
p7391
aa(lp7392
V2012:10:27 16:49:45
p7393
aV2194
p7394
aa(lp7395
V2012:10:28 13:38:30
p7396
aV2197
p7397
aa(lp7398
V2012:10:28 17:37:41
p7399
aV2198
p7400
aa(lp7401
V2012:10:31 08:10:00
p7402
aV2200
p7403
aa(lp7404
V2012:10:31 08:11:33
p7405
aV2199
p7406
aa(lp7407
V2012:10:31 08:33:21
p7408
aV2201
p7409
aa(lp7410
V2012:10:31 18:26:48
p7411
aV2203
p7412
aa(lp7413
V2012:10:31 19:12:47
p7414
aV2202
p7415
aa(lp7416
V2012:11:02 10:48:12
p7417
aV2204
p7418
aa(lp7419
V2012:11:03 10:57:03
p7420
aV2205
p7421
aa(lp7422
V2012:11:04 11:23:17
p7423
aV2209
p7424
aa(lp7425
V2012:11:04 11:54:48
p7426
aV2208
p7427
aa(lp7428
V2012:11:04 12:42:29
p7429
aV2206
p7430
aa(lp7431
V2012:11:04 12:48:05
p7432
aV2207
p7433
aa(lp7434
V2012:11:10 16:51:20
p7435
aV2212
p7436
aa(lp7437
V2012:11:11 09:05:12
p7438
aV2213
p7439
aa(lp7440
V2012:11:11 10:28:59
p7441
aV2211
p7442
aa(lp7443
V2012:11:11 10:29:00
p7444
aV2214
p7445
aa(lp7446
V2012:11:11 11:12:09
p7447
aV2210
p7448
aa(lp7449
V2012:11:12 11:17:28
p7450
aV2215
p7451
aa(lp7452
V2012:11:12 13:08:23
p7453
aV2216
p7454
aa(lp7455
V2012:11:12 18:16:24
p7456
aV2217
p7457
aa(lp7458
V2012:11:14 08:39:48
p7459
aV2218
p7460
aa(lp7461
V2012:11:16 08:15:41
p7462
aV2219
p7463
aa(lp7464
V2012:11:17 08:51:21
p7465
aV2220
p7466
aa(lp7467
V2012:11:18 10:24:57
p7468
aV2221
p7469
aa(lp7470
V2012:11:18 10:25:02
p7471
aV2222
p7472
aa(lp7473
V2012:11:18 11:09:54
p7474
aV2223
p7475
aa(lp7476
V2012:11:18 12:36:50
p7477
aV2224
p7478
aa(lp7479
V2012:11:19 06:57:03
p7480
aV2225
p7481
aa(lp7482
V2012:11:20 07:30:48
p7483
aV2226
p7484
aa(lp7485
V2012:11:21 17:56:43
p7486
aV2227
p7487
aa(lp7488
V2012:11:22 12:30:30
p7489
aV2233
p7490
aa(lp7491
V2012:11:22 18:52:24
p7492
aV2228
p7493
aa(lp7494
V2012:11:23 10:36:02
p7495
aV2229
p7496
aa(lp7497
V2012:11:23 18:40:11
p7498
aV2230
p7499
aa(lp7500
V2012:11:24 10:38:18
p7501
aV2231
p7502
aa(lp7503
V2012:11:24 11:36:00
p7504
aV2232
p7505
aa(lp7506
V2012:11:25 09:15:47
p7507
aV2234
p7508
aa(lp7509
V2012:11:25 09:16:19
p7510
aV2235
p7511
aa(lp7512
V2012:11:29 07:55:06
p7513
aV2236
p7514
aa(lp7515
g7513
aV2237
p7516
aa(lp7517
V2012:11:29 07:55:06
p7518
aV2319
p7519
aa(lp7520
V2012:11:29 11:09:34
p7521
aV2238
p7522
aa(lp7523
V2012:12:01 17:12:34
p7524
aV2239
p7525
aa(lp7526
V2012:12:01 19:44:56
p7527
aV2240
p7528
aa(lp7529
V2012:12:05 07:43:47
p7530
aV2241
p7531
aa(lp7532
V2012:12:05 07:43:55
p7533
aV2242
p7534
aa(lp7535
V2012:12:05 07:45:11
p7536
aV2243
p7537
aa(lp7538
V2012:12:06 07:46:50
p7539
aV2244
p7540
aa(lp7541
V2012:12:06 08:43:40
p7542
aV2245
p7543
aa(lp7544
V2012:12:07 19:58:09
p7545
aV2246
p7546
aa(lp7547
V2012:12:07 20:08:51
p7548
aV2247
p7549
aa(lp7550
V2012:12:07 20:38:17
p7551
aV2248
p7552
aa(lp7553
V2012:12:08 12:48:42
p7554
aV2249
p7555
aa(lp7556
V2012:12:09 10:53:44
p7557
aV2250
p7558
aa(lp7559
V2012:12:09 10:55:18
p7560
aV2252
p7561
aa(lp7562
V2012:12:09 12:37:30
p7563
aV2251
p7564
aa(lp7565
V2012:12:10 09:42:39
p7566
aV2253
p7567
aa(lp7568
V2012:12:10 10:34:43
p7569
aV2254
p7570
aa(lp7571
V2012:12:11 09:09:40
p7572
aV2255
p7573
aa(lp7574
V2012:12:11 19:17:34
p7575
aV2256
p7576
aa(lp7577
V2012:12:13 07:21:54
p7578
aV2257
p7579
aa(lp7580
V2012:12:13 19:44:27
p7581
aV2258
p7582
aa(lp7583
V2012:12:14 08:02:07
p7584
aV2259
p7585
aa(lp7586
V2012:12:14 08:04:09
p7587
aV2260
p7588
aa(lp7589
V2012:12:14 08:19:26
p7590
aV2261
p7591
aa(lp7592
V2012:12:15 19:45:54
p7593
aV2262
p7594
aa(lp7595
V2012:12:15 19:53:09
p7596
aV2263
p7597
aa(lp7598
V2012:12:15 19:55:50
p7599
aV2264
p7600
aa(lp7601
V2012:12:16 10:07:51
p7602
aV2265
p7603
aa(lp7604
V2012:12:16 11:17:37
p7605
aV2266
p7606
aa(lp7607
V2012:12:16 19:34:26
p7608
aV2267
p7609
aa(lp7610
V2012:12:19 12:42:12
p7611
aV2268
p7612
aa(lp7613
g7611
aV2269
p7614
aa(lp7615
V2012:12:20 20:48:20
p7616
aV2276
p7617
aa(lp7618
V2012:12:20 20:48:20
p7619
aV3653
p7620
aa(lp7621
V2012:12:20 20:48:20
p7622
aV3653
p7623
aa(lp7624
V2012:12:20 20:48:20
p7625
aV3653
p7626
aa(lp7627
V2012:12:20 20:48:20
p7628
aV3653
p7629
aa(lp7630
V2012:12:22 10:32:28
p7631
aV2275
p7632
aa(lp7633
V2012:12:22 11:20:38
p7634
aV2274
p7635
aa(lp7636
V2012:12:22 11:38:56
p7637
aV2273
p7638
aa(lp7639
V2012:12:22 12:32:35
p7640
aV2272
p7641
aa(lp7642
V2012:12:22 13:37:58
p7643
aV2271
p7644
aa(lp7645
V2012:12:22 18:20:15
p7646
aV2270
p7647
aa(lp7648
V2012:12:23 10:08:10
p7649
aV2277
p7650
aa(lp7651
V2012:12:25 07:01:55
p7652
aV2278
p7653
aa(lp7654
V2012:12:25 07:16:49
p7655
aV2279
p7656
aa(lp7657
V2012:12:25 08:18:16
p7658
aV2280
p7659
aa(lp7660
V2012:12:25 08:48:56
p7661
aV2281
p7662
aa(lp7663
V2012:12:25 10:02:56
p7664
aV2284
p7665
aa(lp7666
V2012:12:25 10:58:09
p7667
aV2282
p7668
aa(lp7669
V2012:12:25 11:19:37
p7670
aV2283
p7671
aa(lp7672
V2012:12:25 15:25:47
p7673
aV2285
p7674
aa(lp7675
V2012:12:25 17:52:07
p7676
aV2286
p7677
aa(lp7678
V2012:12:26 10:13:22
p7679
aV2287
p7680
aa(lp7681
V2012:12:26 11:03:37
p7682
aV2288
p7683
aa(lp7684
V2012:12:27 11:59:24
p7685
aV2289
p7686
aa(lp7687
V2012:12:27 12:00:40
p7688
aV2290
p7689
aa(lp7690
V2012:12:28 09:21:23
p7691
aV2291
p7692
aa(lp7693
V2012:12:28 13:58:37
p7694
aV2301
p7695
aa(lp7696
V2012:12:29 08:25:02
p7697
aV2296
p7698
aa(lp7699
V2012:12:29 09:19:50
p7700
aV2292
p7701
aa(lp7702
V2012:12:30 20:21:15
p7703
aV2293
p7704
aa(lp7705
V2012:12:30 20:22:30
p7706
aV2294
p7707
aa(lp7708
V2012:12:30 22:31:09
p7709
aV2295
p7710
aa(lp7711
V2012:12:31 20:20:48
p7712
aV2297
p7713
aa(lp7714
V2013:01:03 16:41:06
p7715
aV2303
p7716
aa(lp7717
V2013:01:03 20:51:09
p7718
aV2304
p7719
aa(lp7720
V2013:01:04 09:18:33
p7721
aV2305
p7722
aa(lp7723
V2013:01:04 19:24:04
p7724
aV2316
p7725
aa(lp7726
V2013:01:05 19:57:29
p7727
aV2307
p7728
aa(lp7729
V2013:01:06 08:43:11
p7730
aV2311
p7731
aa(lp7732
V2013:01:06 10:15:17
p7733
aV2308
p7734
aa(lp7735
V2013:01:06 10:21:01
p7736
aV2309
p7737
aa(lp7738
V2013:01:08 04:46:40
p7739
aV2315
p7740
aa(lp7741
V2013:01:09 20:00:20
p7742
aV2317
p7743
aa(lp7744
V2013:01:10 07:04:08
p7745
aV2318
p7746
aa(lp7747
V2013:01:11 15:39:02
p7748
aV2320
p7749
aa(lp7750
V2013:01:12 08:35:53
p7751
aV2322
p7752
aa(lp7753
V2013:01:12 08:35:55
p7754
aV2323
p7755
aa(lp7756
V2013:01:12 08:36:14
p7757
aV2321
p7758
aa(lp7759
V2013:01:13 10:01:42
p7760
aV2325
p7761
aa(lp7762
V2013:01:13 12:27:14
p7763
aV2324
p7764
aa(lp7765
V2013:01:13 16:30:43
p7766
aV2326
p7767
aa(lp7768
V2013:01:16 07:47:34
p7769
aV2327
p7770
aa(lp7771
V2013:01:16 08:13:28
p7772
aV2328
p7773
aa(lp7774
V2013:01:17 18:36:35
p7775
aV2330
p7776
aa(lp7777
V2013:01:17 18:36:44
p7778
aV2331
p7779
aa(lp7780
V2013:01:17 18:37:16
p7781
aV2329
p7782
aa(lp7783
V2013:01:19 15:10:50
p7784
aV2332
p7785
aa(lp7786
V2013:01:20 03:28:07
p7787
aV2348
p7788
aa(lp7789
V2013:01:20 09:20:41
p7790
aV2333
p7791
aa(lp7792
V2013:01:20 09:22:23
p7793
aV2334
p7794
aa(lp7795
V2013:01:20 09:23:54
p7796
aV2335
p7797
aa(lp7798
V2013:01:20 09:44:16
p7799
aV2336
p7800
aa(lp7801
V2013:01:20 09:49:29
p7802
aV2337
p7803
aa(lp7804
V2013:01:20 12:32:08
p7805
aV2338
p7806
aa(lp7807
V2013:01:20 13:33:25
p7808
aV2339
p7809
aa(lp7810
V2013:01:21 18:39:36
p7811
aV2341
p7812
aa(lp7813
V2013:01:21 19:33:27
p7814
aV2340
p7815
aa(lp7816
V2013:01:25 19:38:48
p7817
aV2342
p7818
aa(lp7819
V2013:01:26 11:33:47
p7820
aV2347
p7821
aa(lp7822
V2013:01:26 12:10:52
p7823
aV2346
p7824
aa(lp7825
V2013:01:26 12:18:03
p7826
aV2345
p7827
aa(lp7828
V2013:01:26 12:25:51
p7829
aV2344
p7830
aa(lp7831
V2013:01:26 12:30:44
p7832
aV2343
p7833
aa(lp7834
V2013:01:27 10:34:40
p7835
aV2349
p7836
aa(lp7837
V2013:01:27 11:33:46
p7838
aV2351
p7839
aa(lp7840
V2013:01:27 12:44:11
p7841
aV2350
p7842
aa(lp7843
V2013:01:29 09:17:46
p7844
aV2352
p7845
aa(lp7846
V2013:01:30 07:05:43
p7847
aV2353
p7848
aa(lp7849
V2013:01:30 08:12:34
p7850
aV2354
p7851
aa(lp7852
V2013:01:30 08:41:30
p7853
aV2355
p7854
aa(lp7855
V2013:01:30 17:56:57
p7856
aV2356
p7857
aa(lp7858
V2013:01:31 08:28:51
p7859
aV2357
p7860
aa(lp7861
V2013:01:31 11:46:23
p7862
aV2358
p7863
aa(lp7864
V2013:01:31 19:49:43
p7865
aV2359
p7866
aa(lp7867
V2013:01:31 19:51:40
p7868
aV2402
p7869
aa(lp7870
V2013:01:31 19:52:58
p7871
aV2401
p7872
aa(lp7873
V2013:01:31 20:26:19
p7874
aV2400
p7875
aa(lp7876
V2013:01:31 20:46:27
p7877
aV2399
p7878
aa(lp7879
V2013:01:31 22:34:29
p7880
aV2360
p7881
aa(lp7882
V2013:02:01 08:33:15
p7883
aV2361
p7884
aa(lp7885
V2013:02:01 08:41:20
p7886
aV2362
p7887
aa(lp7888
V2013:02:01 08:47:39
p7889
aV2363
p7890
aa(lp7891
V2013:02:01 08:57:10
p7892
aV2364
p7893
aa(lp7894
V2013:02:01 08:57:20
p7895
aV2387
p7896
aa(lp7897
V2013:02:01 09:00:34
p7898
aV2398
p7899
aa(lp7900
V2013:02:01 09:17:34
p7901
aV2365
p7902
aa(lp7903
V2013:02:01 09:17:37
p7904
aV2366
p7905
aa(lp7906
V2013:02:01 10:39:56
p7907
aV2367
p7908
aa(lp7909
V2013:02:01 13:08:21
p7910
aV2372
p7911
aa(lp7912
V2013:02:01 13:26:50
p7913
aV2370
p7914
aa(lp7915
V2013:02:01 13:36:38
p7916
aV2373
p7917
aa(lp7918
V2013:02:01 14:19:16
p7919
aV2404
p7920
aa(lp7921
V2013:02:01 14:22:15
p7922
aV2369
p7923
aa(lp7924
V2013:02:01 15:03:34
p7925
aV2368
p7926
aa(lp7927
V2013:02:01 15:28:20
p7928
aV2371
p7929
aa(lp7930
V2013:02:01 15:48:18
p7931
aV2374
p7932
aa(lp7933
V2013:02:01 16:40:06
p7934
aV2376
p7935
aa(lp7936
V2013:02:01 16:52:09
p7937
aV2377
p7938
aa(lp7939
V2013:02:01 17:04:29
p7940
aV2375
p7941
aa(lp7942
V2013:02:01 17:06:07
p7943
aV2403
p7944
aa(lp7945
V2013:02:01 17:06:42
p7946
aV2397
p7947
aa(lp7948
V2013:02:01 17:07:09
p7949
aV2396
p7950
aa(lp7951
V2013:02:01 17:16:07
p7952
aV2414
p7953
aa(lp7954
V2013:02:01 17:16:57
p7955
aV2408
p7956
aa(lp7957
V2013:02:02 09:49:29
p7958
aV2413
p7959
aa(lp7960
V2013:02:02 09:55:22
p7961
aV2412
p7962
aa(lp7963
V2013:02:02 10:57:04
p7964
aV2378
p7965
aa(lp7966
V2013:02:02 11:56:09
p7967
aV2381
p7968
aa(lp7969
V2013:02:02 11:56:15
p7970
aV2382
p7971
aa(lp7972
V2013:02:02 12:19:10
p7973
aV2379
p7974
aa(lp7975
V2013:02:02 12:20:38
p7976
aV2380
p7977
aa(lp7978
V2013:02:02 18:59:41
p7979
aV2411
p7980
aa(lp7981
V2013:02:02 19:01:39
p7982
aV2407
p7983
aa(lp7984
V2013:02:02 19:16:02
p7985
aV2410
p7986
aa(lp7987
V2013:02:02 19:17:10
p7988
aV2409
p7989
aa(lp7990
V2013:02:03 09:56:36
p7991
aV2383
p7992
aa(lp7993
V2013:02:03 10:17:40
p7994
aV2384
p7995
aa(lp7996
V2013:02:03 14:16:45
p7997
aV2385
p7998
aa(lp7999
V2013:02:04 18:28:25
p8000
aV2386
p8001
aa(lp8002
V2013:02:09 09:53:39
p8003
aV2389
p8004
aa(lp8005
V2013:02:09 11:56:30
p8006
aV2390
p8007
aa(lp8008
V2013:02:09 11:59:48
p8009
aV2391
p8010
aa(lp8011
V2013:02:09 13:37:26
p8012
aV2388
p8013
aa(lp8014
V2013:02:10 13:29:11
p8015
aV2393
p8016
aa(lp8017
V2013:02:10 13:32:50
p8018
aV2392
p8019
aa(lp8020
V2013:02:12 08:33:48
p8021
aV2394
p8022
aa(lp8023
V2013:02:15 04:36:41
p8024
aV2395
p8025
aa(lp8026
V2013:02:15 04:36:45
p8027
aV2405
p8028
aa(lp8029
V2013:02:15 04:36:45
p8030
aV2406
p8031
aa(lp8032
V2013:02:15 07:23:02
p8033
aV2415
p8034
aa(lp8035
V2013:02:15 10:22:00
p8036
aV2416
p8037
aa(lp8038
V2013:02:15 10:22:22
p8039
aV2417
p8040
aa(lp8041
V2013:02:15 11:10:04
p8042
aV2418
p8043
aa(lp8044
V2013:02:16 11:30:27
p8045
aV2419
p8046
aa(lp8047
V2013:02:16 12:37:43
p8048
aV2420
p8049
aa(lp8050
V2013:02:16 14:29:15
p8051
aV2421
p8052
aa(lp8053
V2013:02:16 15:12:08
p8054
aV2422
p8055
aa(lp8056
V2013:02:17 12:07:03
p8057
aV2423
p8058
aa(lp8059
V2013:02:17 12:17:09
p8060
aV2424
p8061
aa(lp8062
V2013:02:18 10:44:54
p8063
aV2425
p8064
aa(lp8065
V2013:02:18 10:47:53
p8066
aV2426
p8067
aa(lp8068
V2013:02:18 13:07:35
p8069
aV2427
p8070
aa(lp8071
V2013:02:18 13:08:38
p8072
aV2428
p8073
aa(lp8074
V2013:02:20 08:10:17
p8075
aV2429
p8076
aa(lp8077
V2013:02:20 08:13:00
p8078
aV2430
p8079
aa(lp8080
V2013:02:23 09:14:49
p8081
aV2440
p8082
aa(lp8083
V2013:02:23 09:14:49
p8084
aV2446
p8085
aa(lp8086
V2013:02:23 10:44:12
p8087
aV2439
p8088
aa(lp8089
V2013:02:23 10:44:12
p8090
aV2445
p8091
aa(lp8092
V2013:02:23 16:20:04
p8093
aV2431
p8094
aa(lp8095
V2013:02:23 16:24:59
p8096
aV2432
p8097
aa(lp8098
V2013:02:23 16:26:58
p8099
aV2433
p8100
aa(lp8101
V2013:02:24 10:06:33
p8102
aV2434
p8103
aa(lp8104
V2013:02:24 10:30:47
p8105
aV2435
p8106
aa(lp8107
V2013:02:24 16:53:35
p8108
aV2437
p8109
aa(lp8110
V2013:02:25 11:27:19
p8111
aV2436
p8112
aa(lp8113
V2013:03:02 09:10:45
p8114
aV2438
p8115
aa(lp8116
V2013:03:02 11:40:51
p8117
aV2441
p8118
aa(lp8119
V2013:03:02 17:28:26
p8120
aV2442
p8121
aa(lp8122
V2013:03:03 10:05:19
p8123
aV2443
p8124
aa(lp8125
V2013:03:04 12:05:26
p8126
aV2448
p8127
aa(lp8128
V2013:03:04 12:39:32
p8129
aV2444
p8130
aa(lp8131
V2013:03:06 07:41:32
p8132
aV2447
p8133
aa(lp8134
V2013:03:06 13:39:56
p8135
aV2449
p8136
aa(lp8137
V2013:03:07 19:23:36
p8138
aV2451
p8139
aa(lp8140
V2013:03:09 09:40:30
p8141
aV2450
p8142
aa(lp8143
V2013:03:11 19:40:12
p8144
aV2452
p8145
aa(lp8146
V2013:03:16 09:45:51
p8147
aV2453
p8148
aa(lp8149
V2013:03:16 10:15:20
p8150
aV2456
p8151
aa(lp8152
V2013:03:16 10:58:43
p8153
aV2455
p8154
aa(lp8155
V2013:03:16 13:40:29
p8156
aV2454
p8157
aa(lp8158
V2013:03:17 08:39:23
p8159
aV2457
p8160
aa(lp8161
V2013:03:17 13:16:51
p8162
aV2459
p8163
aa(lp8164
V2013:03:17 17:04:48
p8165
aV2458
p8166
aa(lp8167
V2013:03:20 18:34:16
p8168
aV2460
p8169
aa(lp8170
V2013:03:23 14:00:54
p8171
aV2461
p8172
aa(lp8173
V2013:03:23 14:04:32
p8174
aV2462
p8175
aa(lp8176
V2013:03:23 14:05:08
p8177
aV2463
p8178
aa(lp8179
V2013:03:23 14:13:08
p8180
aV2464
p8181
aa(lp8182
V2013:03:23 19:20:47
p8183
aV2465
p8184
aa(lp8185
V2013:03:24 09:05:19
p8186
aV2466
p8187
aa(lp8188
V2013:03:27 07:18:07
p8189
aV2467
p8190
aa(lp8191
V2013:03:29 18:40:22
p8192
aV2468
p8193
aa(lp8194
V2013:03:30 10:07:12
p8195
aV2470
p8196
aa(lp8197
V2013:03:30 12:02:17
p8198
aV2471
p8199
aa(lp8200
V2013:03:30 12:27:19
p8201
aV2473
p8202
aa(lp8203
V2013:03:30 12:27:30
p8204
aV2472
p8205
aa(lp8206
V2013:03:30 13:41:06
p8207
aV2469
p8208
aa(lp8209
V2013:03:31 08:55:24
p8210
aV2474
p8211
aa(lp8212
V2013:03:31 12:06:34
p8213
aV2475
p8214
aa(lp8215
V2013:03:31 12:53:41
p8216
aV2476
p8217
aa(lp8218
V2013:03:31 15:34:08
p8219
aV2478
p8220
aa(lp8221
V2013:03:31 16:19:43
p8222
aV2479
p8223
aa(lp8224
V2013:03:31 16:27:19
p8225
aV2477
p8226
aa(lp8227
V2013:04:01 10:30:21
p8228
aV2480
p8229
aa(lp8230
V2013:04:01 11:11:47
p8231
aV2481
p8232
aa(lp8233
V2013:04:01 11:23:28
p8234
aV2482
p8235
aa(lp8236
V2013:04:03 09:52:43
p8237
aV2483
p8238
aa(lp8239
V2013:04:03 10:52:55
p8240
aV2487
p8241
aa(lp8242
V2013:04:03 12:30:31
p8243
aV2488
p8244
aa(lp8245
V2013:04:03 12:30:43
p8246
aV2489
p8247
aa(lp8248
V2013:04:03 12:53:08
p8249
aV2490
p8250
aa(lp8251
V2013:04:03 12:57:04
p8252
aV2491
p8253
aa(lp8254
V2013:04:04 08:07:18
p8255
aV2484
p8256
aa(lp8257
V2013:04:04 15:56:40
p8258
aV2486
p8259
aa(lp8260
V2013:04:04 15:57:03
p8261
aV2485
p8262
aa(lp8263
V2013:04:06 10:20:25
p8264
aV2494
p8265
aa(lp8266
V2013:04:06 10:51:08
p8267
aV2506
p8268
aa(lp8269
V2013:04:06 10:54:20
p8270
aV2505
p8271
aa(lp8272
V2013:04:07 09:31:45
p8273
aV2504
p8274
aa(lp8275
V2013:04:07 10:09:27
p8276
aV2503
p8277
aa(lp8278
V2013:04:07 10:10:04
p8279
aV2502
p8280
aa(lp8281
V2013:04:07 10:11:01
p8282
aV2501
p8283
aa(lp8284
V2013:04:07 10:12:43
p8285
aV2500
p8286
aa(lp8287
V2013:04:07 10:15:26
p8288
aV2499
p8289
aa(lp8290
V2013:04:07 11:03:58
p8291
aV2498
p8292
aa(lp8293
V2013:04:07 11:06:17
p8294
aV2497
p8295
aa(lp8296
V2013:04:07 11:09:48
p8297
aV2496
p8298
aa(lp8299
V2013:04:07 11:11:56
p8300
aV2495
p8301
aa(lp8302
V2013:04:07 16:00:28
p8303
aV2519
p8304
aa(lp8305
V2013:04:07 16:00:55
p8306
aV2518
p8307
aa(lp8308
V2013:04:07 16:27:50
p8309
aV2517
p8310
aa(lp8311
V2013:04:07 16:37:08
p8312
aV2516
p8313
aa(lp8314
V2013:04:07 16:54:04
p8315
aV2515
p8316
aa(lp8317
V2013:04:07 17:06:13
p8318
aV2514
p8319
aa(lp8320
V2013:04:07 17:06:19
p8321
aV2513
p8322
aa(lp8323
V2013:04:08 06:55:02
p8324
aV2512
p8325
aa(lp8326
V2013:04:08 09:13:45
p8327
aV2511
p8328
aa(lp8329
V2013:04:08 09:15:30
p8330
aV2510
p8331
aa(lp8332
V2013:04:08 09:21:06
p8333
aV2509
p8334
aa(lp8335
V2013:04:08 12:16:16
p8336
aV2508
p8337
aa(lp8338
V2013:04:08 16:31:36
p8339
aV2507
p8340
aa(lp8341
V2013:04:10 17:35:37
p8342
aV2492
p8343
aa(lp8344
V2013:04:10 17:49:38
p8345
aV2493
p8346
aa(lp8347
V2013:04:12 09:39:36
p8348
aV2520
p8349
aa(lp8350
V2013:04:12 09:39:48
p8351
aV2521
p8352
aa(lp8353
V2013:04:12 09:44:18
p8354
aV2522
p8355
aa(lp8356
V2013:04:13 09:27:25
p8357
aV2523
p8358
aa(lp8359
V2013:04:13 15:58:59
p8360
aV2524
p8361
aa(lp8362
V2013:04:13 16:04:33
p8363
aV2525
p8364
aa(lp8365
V2013:04:13 16:56:41
p8366
aV2526
p8367
aa(lp8368
V2013:04:14 14:02:50
p8369
aV2527
p8370
aa(lp8371
V2013:04:15 07:47:10
p8372
aV2528
p8373
aa(lp8374
V2013:04:17 08:33:34
p8375
aV2529
p8376
aa(lp8377
V2013:04:18 08:03:23
p8378
aV2530
p8379
aa(lp8380
V2013:04:20 16:44:37
p8381
aV2531
p8382
aa(lp8383
V2013:04:21 10:07:09
p8384
aV2537
p8385
aa(lp8386
V2013:04:21 11:14:28
p8387
aV2536
p8388
aa(lp8389
V2013:04:21 11:23:22
p8390
aV2532
p8391
aa(lp8392
V2013:04:21 11:58:26
p8393
aV2535
p8394
aa(lp8395
V2013:04:21 14:08:48
p8396
aV2533
p8397
aa(lp8398
V2013:04:21 14:10:19
p8399
aV2534
p8400
aa(lp8401
V2013:04:21 17:57:14
p8402
aV2538
p8403
aa(lp8404
V2013:04:21 19:58:33
p8405
aV2540
p8406
aa(lp8407
V2013:04:21 20:24:43
p8408
aV2539
p8409
aa(lp8410
V2013:04:22 18:31:59
p8411
aV2541
p8412
aa(lp8413
V2013:04:23 12:39:44
p8414
aV2542
p8415
aa(lp8416
V2013:04:23 12:55:38
p8417
aV2543
p8418
aa(lp8419
V2013:04:24 07:46:54
p8420
aV2544
p8421
aa(lp8422
V2013:04:24 08:14:03
p8423
aV2545
p8424
aa(lp8425
V2013:04:24 12:02:02
p8426
aV2546
p8427
aa(lp8428
V2013:04:24 13:58:18
p8429
aV2547
p8430
aa(lp8431
V2013:04:27 08:28:14
p8432
aV2551
p8433
aa(lp8434
V2013:04:27 13:27:19
p8435
aV2548
p8436
aa(lp8437
V2013:04:27 13:48:16
p8438
aV2552
p8439
aa(lp8440
V2013:04:27 14:53:12
p8441
aV2553
p8442
aa(lp8443
V2013:04:27 14:53:13
p8444
aV2549
p8445
aa(lp8446
V2013:04:27 15:15:39
p8447
aV2550
p8448
aa(lp8449
V2013:04:27 15:44:07
p8450
aV2554
p8451
aa(lp8452
V2013:04:27 18:33:26
p8453
aV2555
p8454
aa(lp8455
V2013:04:27 18:33:31
p8456
aV2556
p8457
aa(lp8458
V2013:04:28 08:24:43
p8459
aV2557
p8460
aa(lp8461
V2013:04:28 09:55:37
p8462
aV2558
p8463
aa(lp8464
V2013:04:28 15:24:08
p8465
aV2559
p8466
aa(lp8467
V2013:04:28 16:43:32
p8468
aV2560
p8469
aa(lp8470
V2013:04:29 19:55:40
p8471
aV2561
p8472
aa(lp8473
V2013:04:30 19:12:09
p8474
aV2562
p8475
aa(lp8476
V2013:05:01 08:15:15
p8477
aV2563
p8478
aa(lp8479
V2013:05:03 18:57:11
p8480
aV2564
p8481
aa(lp8482
V2013:05:04 09:10:43
p8483
aV2566
p8484
aa(lp8485
V2013:05:04 10:53:57
p8486
aV2567
p8487
aa(lp8488
V2013:05:04 10:54:27
p8489
aV2565
p8490
aa(lp8491
V2013:05:04 11:01:47
p8492
aV2568
p8493
aa(lp8494
V2013:05:04 11:02:07
p8495
aV2569
p8496
aa(lp8497
V2013:05:04 11:24:08
p8498
aV2570
p8499
aa(lp8500
V2013:05:05 08:47:49
p8501
aV2571
p8502
aa(lp8503
V2013:05:07 11:28:15
p8504
aV2572
p8505
aa(lp8506
V2013:05:07 14:16:29
p8507
aV2573
p8508
aa(lp8509
V2013:05:07 14:16:32
p8510
aV2574
p8511
aa(lp8512
V2013:05:08 20:04:40
p8513
aV2577
p8514
aa(lp8515
V2013:05:10 07:05:25
p8516
aV2576
p8517
aa(lp8518
V2013:05:10 07:17:37
p8519
aV2575
p8520
aa(lp8521
V2013:05:11 08:29:33
p8522
aV2578
p8523
aa(lp8524
V2013:05:11 09:29:01
p8525
aV2579
p8526
aa(lp8527
V2013:05:11 13:50:24
p8528
aV2580
p8529
aa(lp8530
V2013:05:11 17:02:52
p8531
aV2581
p8532
aa(lp8533
V2013:05:11 18:35:17
p8534
aV2584
p8535
aa(lp8536
V2013:05:12 11:57:32
p8537
aV2582
p8538
aa(lp8539
V2013:05:12 11:58:28
p8540
aV2583
p8541
aa(lp8542
V2013:05:14 11:58:51
p8543
aV2585
p8544
aa(lp8545
V2013:05:15 07:15:08
p8546
aV2586
p8547
aa(lp8548
V2013:05:16 08:01:06
p8549
aV2589
p8550
aa(lp8551
V2013:05:16 09:06:27
p8552
aV2588
p8553
aa(lp8554
V2013:05:16 09:26:53
p8555
aV2587
p8556
aa(lp8557
V2013:05:16 14:02:41
p8558
aV2590
p8559
aa(lp8560
V2013:05:16 16:26:24
p8561
aV2591
p8562
aa(lp8563
V2013:05:18 09:29:12
p8564
aV2592
p8565
aa(lp8566
V2013:05:18 10:42:44
p8567
aV2593
p8568
aa(lp8569
V2013:05:18 11:18:37
p8570
aV2594
p8571
aa(lp8572
V2013:05:18 13:17:54
p8573
aV2595
p8574
aa(lp8575
V2013:05:18 18:12:47
p8576
aV2596
p8577
aa(lp8578
V2013:05:18 18:37:23
p8579
aV2597
p8580
aa(lp8581
V2013:05:18 18:40:42
p8582
aV2598
p8583
aa(lp8584
V2013:05:18 18:50:31
p8585
aV2599
p8586
aa(lp8587
V2013:05:18 19:06:51
p8588
aV2601
p8589
aa(lp8590
V2013:05:18 21:10:37
p8591
aV2602
p8592
aa(lp8593
V2013:05:19 10:34:13
p8594
aV2605
p8595
aa(lp8596
V2013:05:19 17:50:53
p8597
aV2604
p8598
aa(lp8599
V2013:05:20 09:56:27
p8600
aV2603
p8601
aa(lp8602
V2013:05:21 16:35:26
p8603
aV2606
p8604
aa(lp8605
V2013:05:22 10:01:26
p8606
aV2607
p8607
aa(lp8608
V2013:05:22 19:02:13
p8609
aV2608
p8610
aa(lp8611
V2013:05:23 06:05:44
p8612
aV2611
p8613
aa(lp8614
V2013:05:23 07:19:45
p8615
aV2609
p8616
aa(lp8617
V2013:05:23 07:19:45
p8618
aV2612
p8619
aa(lp8620
V2013:05:23 08:24:59
p8621
aV2613
p8622
aa(lp8623
V2013:05:23 11:06:15
p8624
aV2614
p8625
aa(lp8626
V2013:05:23 11:34:54
p8627
aV2615
p8628
aa(lp8629
V2013:05:24 16:17:58
p8630
aV2616
p8631
aa(lp8632
V2013:05:24 16:32:17
p8633
aV2617
p8634
aa(lp8635
V2013:05:24 19:30:02
p8636
aV2618
p8637
aa(lp8638
V2013:05:25 12:25:53
p8639
aV2619
p8640
aa(lp8641
V2013:05:25 12:25:53
p8642
aV2665
p8643
aa(lp8644
V2013:05:25 12:25:53
p8645
aV2666
p8646
aa(lp8647
V2013:05:25 12:26:01
p8648
aV2620
p8649
aa(lp8650
V2013:05:25 16:49:21
p8651
aV2621
p8652
aa(lp8653
V2013:05:25 16:54:07
p8654
aV2622
p8655
aa(lp8656
V2013:05:25 16:57:15
p8657
aV2627
p8658
aa(lp8659
V2013:05:25 17:03:20
p8660
aV2628
p8661
aa(lp8662
V2013:05:25 17:21:00
p8663
aV2629
p8664
aa(lp8665
V2013:05:25 17:21:55
p8666
aV2630
p8667
aa(lp8668
V2013:05:25 17:55:38
p8669
aV2623
p8670
aa(lp8671
V2013:05:25 18:01:37
p8672
aV2624
p8673
aa(lp8674
V2013:05:25 18:02:03
p8675
aV2625
p8676
aa(lp8677
V2013:05:25 18:02:53
p8678
aV2626
p8679
aa(lp8680
V2013:05:25 18:14:11
p8681
aV2631
p8682
aa(lp8683
V2013:05:25 18:31:33
p8684
aV2632
p8685
aa(lp8686
V2013:05:25 18:32:46
p8687
aV2633
p8688
aa(lp8689
V2013:05:25 19:04:32
p8690
aV2656
p8691
aa(lp8692
V2013:05:25 19:05:55
p8693
aV2634
p8694
aa(lp8695
V2013:05:25 19:06:03
p8696
aV2635
p8697
aa(lp8698
V2013:05:25 19:09:05
p8699
aV2636
p8700
aa(lp8701
V2013:05:25 19:16:13
p8702
aV2637
p8703
aa(lp8704
V2013:05:25 19:19:17
p8705
aV2638
p8706
aa(lp8707
V2013:05:25 19:37:52
p8708
aV2639
p8709
aa(lp8710
V2013:05:25 19:38:47
p8711
aV2640
p8712
aa(lp8713
V2013:05:25 20:42:55
p8714
aV2641
p8715
aa(lp8716
V2013:05:25 22:11:09
p8717
aV2642
p8718
aa(lp8719
V2013:05:26 09:50:27
p8720
aV2643
p8721
aa(lp8722
V2013:05:26 11:35:34
p8723
aV2644
p8724
aa(lp8725
V2013:05:26 12:14:45
p8726
aV2645
p8727
aa(lp8728
V2013:05:26 12:19:57
p8729
aV2646
p8730
aa(lp8731
V2013:05:26 13:40:51
p8732
aV2647
p8733
aa(lp8734
V2013:05:26 15:05:49
p8735
aV2648
p8736
aa(lp8737
V2013:05:26 21:41:27
p8738
aV2649
p8739
aa(lp8740
V2013:05:26 22:39:16
p8741
aV2650
p8742
aa(lp8743
V2013:05:27 09:24:10
p8744
aV2651
p8745
aa(lp8746
V2013:05:27 12:31:04
p8747
aV2652
p8748
aa(lp8749
V2013:05:27 12:31:57
p8750
aV2653
p8751
aa(lp8752
V2013:05:28 06:09:35
p8753
aV2654
p8754
aa(lp8755
V2013:05:28 06:09:35
p8756
aV2655
p8757
aa(lp8758
V2013:05:28 20:19:09
p8759
aV2657
p8760
aa(lp8761
V2013:05:29 07:59:15
p8762
aV2658
p8763
aa(lp8764
V2013:05:31 11:11:58
p8765
aV2659
p8766
aa(lp8767
V2013:06:01 12:31:39
p8768
aV2660
p8769
aa(lp8770
V2013:06:01 15:15:02
p8771
aV2662
p8772
aa(lp8773
V2013:06:02 13:14:24
p8774
aV2661
p8775
aa(lp8776
V2013:06:04 10:14:07
p8777
aV2663
p8778
aa(lp8779
V2013:06:06 08:27:49
p8780
aV2664
p8781
aa(lp8782
V2013:06:06 19:20:44
p8783
aV2667
p8784
aa(lp8785
V2013:06:08 15:21:14
p8786
aV2668
p8787
aa(lp8788
V2013:06:09 10:44:54
p8789
aV2671
p8790
aa(lp8791
V2013:06:09 12:23:10
p8792
aV2669
p8793
aa(lp8794
V2013:06:09 17:54:03
p8795
aV2670
p8796
aa(lp8797
V2013:06:12 08:19:51
p8798
aV2672
p8799
aa(lp8800
V2013:06:13 16:56:47
p8801
aV2673
p8802
aa(lp8803
V2013:06:14 18:16:46
p8804
aV2674
p8805
aa(lp8806
V2013:06:15 08:53:19
p8807
aV2675
p8808
aa(lp8809
V2013:06:15 09:32:34
p8810
aV2676
p8811
aa(lp8812
V2013:06:15 14:53:06
p8813
aV2697
p8814
aa(lp8815
V2013:06:16 10:23:20
p8816
aV2680
p8817
aa(lp8818
V2013:06:16 12:02:21
p8819
aV2679
p8820
aa(lp8821
V2013:06:16 12:04:32
p8822
aV2677
p8823
aa(lp8824
V2013:06:16 12:23:01
p8825
aV2678
p8826
aa(lp8827
V2013:06:18 09:05:40
p8828
aV2684
p8829
aa(lp8830
V2013:06:18 09:11:16
p8831
aV2685
p8832
aa(lp8833
V2013:06:18 10:00:06
p8834
aV2681
p8835
aa(lp8836
V2013:06:18 10:14:25
p8837
aV2682
p8838
aa(lp8839
V2013:06:19 08:59:47
p8840
aV2683
p8841
aa(lp8842
V2013:06:20 18:47:24
p8843
aV2686
p8844
aa(lp8845
V2013:06:21 09:05:55
p8846
aV2687
p8847
aa(lp8848
V2013:06:22 08:37:59
p8849
aV2688
p8850
aa(lp8851
V2013:06:22 09:05:55
p8852
aV2695
p8853
aa(lp8854
V2013:06:22 13:17:44
p8855
aV2689
p8856
aa(lp8857
V2013:06:23 10:42:26
p8858
aV2690
p8859
aa(lp8860
V2013:06:23 11:14:34
p8861
aV2691
p8862
aa(lp8863
V2013:06:25 12:35:23
p8864
aV2692
p8865
aa(lp8866
V2013:06:26 07:32:02
p8867
aV2693
p8868
aa(lp8869
V2013:06:26 08:23:07
p8870
aV2694
p8871
aa(lp8872
V2013:06:28 16:29:44
p8873
aV2696
p8874
aa(lp8875
V2013:06:28 19:38:32
p8876
aV2698
p8877
aa(lp8878
V2013:06:28 20:25:18
p8879
aV2699
p8880
aa(lp8881
V2013:06:29 09:28:04
p8882
aV2700
p8883
aa(lp8884
V2013:06:29 09:28:20
p8885
aV2701
p8886
aa(lp8887
V2013:06:29 16:05:27
p8888
aV2702
p8889
aa(lp8890
V2013:06:29 19:57:35
p8891
aV2703
p8892
aa(lp8893
V2013:06:29 20:26:01
p8894
aV2704
p8895
aa(lp8896
V2013:06:30 19:27:48
p8897
aV2706
p8898
aa(lp8899
V2013:06:30 19:35:11
p8900
aV2705
p8901
aa(lp8902
V2013:07:01 09:56:38
p8903
aV2717
p8904
aa(lp8905
V2013:07:01 10:32:52
p8906
aV2713
p8907
aa(lp8908
V2013:07:01 10:33:01
p8909
aV2716
p8910
aa(lp8911
V2013:07:01 10:42:47
p8912
aV2719
p8913
aa(lp8914
V2013:07:01 12:08:03
p8915
aV2718
p8916
aa(lp8917
V2013:07:01 13:04:56
p8918
aV2710
p8919
aa(lp8920
V2013:07:01 13:23:21
p8921
aV2715
p8922
aa(lp8923
V2013:07:01 13:29:51
p8924
aV2714
p8925
aa(lp8926
V2013:07:01 15:06:26
p8927
aV2711
p8928
aa(lp8929
V2013:07:02 12:22:52
p8930
aV2709
p8931
aa(lp8932
V2013:07:02 13:16:10
p8933
aV2707
p8934
aa(lp8935
V2013:07:02 13:16:23
p8936
aV2708
p8937
aa(lp8938
V2013:07:03 08:17:53
p8939
aV2712
p8940
aa(lp8941
V2013:07:03 10:28:41
p8942
aV2722
p8943
aa(lp8944
V2013:07:04 11:32:53
p8945
aV2720
p8946
aa(lp8947
V2013:07:04 18:12:40
p8948
aV2721
p8949
aa(lp8950
V2013:07:05 18:25:57
p8951
aV2723
p8952
aa(lp8953
V2013:07:06 10:21:01
p8954
aV2724
p8955
aa(lp8956
V2013:07:07 08:43:10
p8957
aV2730
p8958
aa(lp8959
V2013:07:07 08:47:24
p8960
aV2729
p8961
aa(lp8962
V2013:07:07 09:18:40
p8963
aV2731
p8964
aa(lp8965
V2013:07:07 09:18:58
p8966
aV2732
p8967
aa(lp8968
V2013:07:07 09:19:02
p8969
aV2733
p8970
aa(lp8971
V2013:07:07 14:01:52
p8972
aV2725
p8973
aa(lp8974
V2013:07:07 16:26:52
p8975
aV2728
p8976
aa(lp8977
V2013:07:07 16:41:19
p8978
aV2726
p8979
aa(lp8980
V2013:07:07 18:08:46
p8981
aV2727
p8982
aa(lp8983
V2013:07:10 08:13:17
p8984
aV2735
p8985
aa(lp8986
V2013:07:10 08:48:47
p8987
aV2734
p8988
aa(lp8989
V2013:07:10 09:26:40
p8990
aV2741
p8991
aa(lp8992
V2013:07:11 07:52:10
p8993
aV2740
p8994
aa(lp8995
V2013:07:11 10:49:42
p8996
aV2742
p8997
aa(lp8998
V2013:07:11 11:09:14
p8999
aV2743
p9000
aa(lp9001
V2013:07:13 09:11:49
p9002
aV2745
p9003
aa(lp9004
V2013:07:13 09:17:17
p9005
aV2744
p9006
aa(lp9007
V2013:07:13 13:22:29
p9008
aV2746
p9009
aa(lp9010
V2013:07:13 19:29:45
p9011
aV2754
p9012
aa(lp9013
V2013:07:13 19:29:54
p9014
aV2755
p9015
aa(lp9016
V2013:07:14 09:40:47
p9017
aV2750
p9018
aa(lp9019
V2013:07:14 10:38:44
p9020
aV2751
p9021
aa(lp9022
V2013:07:14 11:41:46
p9023
aV2752
p9024
aa(lp9025
V2013:07:14 11:42:19
p9026
aV2753
p9027
aa(lp9028
V2013:07:14 18:37:40
p9029
aV2757
p9030
aa(lp9031
V2013:07:15 12:16:13
p9032
aV2758
p9033
aa(lp9034
V2013:07:15 16:16:28
p9035
aV2756
p9036
aa(lp9037
V2013:07:15 18:58:21
p9038
aV2759
p9039
aa(lp9040
V2013:07:15 19:04:04
p9041
aV2761
p9042
aa(lp9043
V2013:07:15 19:10:26
p9044
aV2760
p9045
aa(lp9046
V2013:07:17 07:59:08
p9047
aV2762
p9048
aa(lp9049
V2013:07:18 09:02:11
p9050
aV2763
p9051
aa(lp9052
V2013:07:18 12:18:11
p9053
aV2764
p9054
aa(lp9055
V2013:07:20 08:50:08
p9056
aV2765
p9057
aa(lp9058
V2013:07:21 09:11:34
p9059
aV2766
p9060
aa(lp9061
V2013:07:21 10:37:39
p9062
aV2769
p9063
aa(lp9064
V2013:07:21 11:06:57
p9065
aV2767
p9066
aa(lp9067
V2013:07:21 16:08:45
p9068
aV2768
p9069
aa(lp9070
V2013:07:24 09:25:43
p9071
aV2770
p9072
aa(lp9073
V2013:07:25 10:59:33
p9074
aV2775
p9075
aa(lp9076
V2013:07:25 19:00:01
p9077
aV2771
p9078
aa(lp9079
V2013:07:25 19:00:07
p9080
aV2772
p9081
aa(lp9082
V2013:07:26 08:53:34
p9083
aV2773
p9084
aa(lp9085
V2013:07:26 08:55:51
p9086
aV2774
p9087
aa(lp9088
V2013:07:27 10:56:05
p9089
aV2776
p9090
aa(lp9091
V2013:07:28 10:39:18
p9092
aV2777
p9093
aa(lp9094
V2013:07:28 11:18:03
p9095
aV2778
p9096
aa(lp9097
V2013:07:28 12:04:39
p9098
aV2779
p9099
aa(lp9100
V2013:07:28 12:48:31
p9101
aV2780
p9102
aa(lp9103
V2013:07:28 13:16:30
p9104
aV2781
p9105
aa(lp9106
V2013:07:29 15:16:42
p9107
aV2782
p9108
aa(lp9109
V2013:07:29 18:04:49
p9110
aV2783
p9111
aa(lp9112
V2013:07:30 17:58:25
p9113
aV2784
p9114
aa(lp9115
V2013:07:30 18:44:49
p9116
aV2786
p9117
aa(lp9118
V2013:07:30 18:44:56
p9119
aV2785
p9120
aa(lp9121
V2013:07:31 09:00:07
p9122
aV2787
p9123
aa(lp9124
V2013:08:04 13:02:24
p9125
aV2788
p9126
aa(lp9127
V2013:08:06 18:34:45
p9128
aV2789
p9129
aa(lp9130
V2013:08:06 18:37:31
p9131
aV2790
p9132
aa(lp9133
V2013:08:07 18:52:09
p9134
aV2793
p9135
aa(lp9136
V2013:08:07 18:54:55
p9137
aV2794
p9138
aa(lp9139
V2013:08:08 11:05:36
p9140
aV2792
p9141
aa(lp9142
V2013:08:08 21:40:10
p9143
aV2791
p9144
aa(lp9145
V2013:08:10 10:39:50
p9146
aV2795
p9147
aa(lp9148
V2013:08:10 10:40:03
p9149
aV2796
p9150
aa(lp9151
V2013:08:10 11:08:32
p9152
aV2797
p9153
aa(lp9154
V2013:08:10 11:59:54
p9155
aV2798
p9156
aa(lp9157
V2013:08:11 18:12:35
p9158
aV2800
p9159
aa(lp9160
V2013:08:11 18:26:36
p9161
aV2799
p9162
aa(lp9163
V2013:08:12 11:42:15
p9164
aV2801
p9165
aa(lp9166
V2013:08:13 10:28:26
p9167
aV2802
p9168
aa(lp9169
V2013:08:13 15:42:48
p9170
aV2803
p9171
aa(lp9172
V2013:08:15 18:52:57
p9173
aV2804
p9174
aa(lp9175
V2013:08:16 09:20:15
p9176
aV2805
p9177
aa(lp9178
V2013:08:16 12:15:33
p9179
aV2806
p9180
aa(lp9181
V2013:08:16 19:17:19
p9182
aV2807
p9183
aa(lp9184
V2013:08:16 19:41:32
p9185
aV2829
p9186
aa(lp9187
V2013:08:16 20:30:07
p9188
aV2808
p9189
aa(lp9190
V2013:08:17 10:45:23
p9191
aV2809
p9192
aa(lp9193
V2013:08:18 23:48:24
p9194
aV2810
p9195
aa(lp9196
V2013:08:19 05:16:21
p9197
aV2811
p9198
aa(lp9199
V2013:08:20 07:32:22
p9200
aV2812
p9201
aa(lp9202
V2013:08:20 08:18:54
p9203
aV2813
p9204
aa(lp9205
V2013:08:21 11:36:32
p9206
aV2814
p9207
aa(lp9208
V2013:08:21 11:38:49
p9209
aV2815
p9210
aa(lp9211
V2013:08:24 08:44:12
p9212
aV2816
p9213
aa(lp9214
V2013:08:24 09:03:31
p9215
aV2817
p9216
aa(lp9217
V2013:08:24 09:03:34
p9218
aV2818
p9219
aa(lp9220
V2013:08:24 17:30:13
p9221
aV2819
p9222
aa(lp9223
V2013:08:25 08:02:25
p9224
aV2820
p9225
aa(lp9226
V2013:08:25 14:57:16
p9227
aV2822
p9228
aa(lp9229
V2013:08:26 08:11:21
p9230
aV2823
p9231
aa(lp9232
V2013:08:26 16:28:19
p9233
aV2821
p9234
aa(lp9235
V2013:08:27 09:22:28
p9236
aV2826
p9237
aa(lp9238
V2013:08:27 11:25:47
p9239
aV2825
p9240
aa(lp9241
V2013:08:27 11:58:15
p9242
aV2824
p9243
aa(lp9244
V2013:08:27 11:59:14
p9245
aV2827
p9246
aa(lp9247
V2013:08:27 12:16:25
p9248
aV2828
p9249
aa(lp9250
V2013:08:28 06:57:13
p9251
aV2853
p9252
aa(lp9253
V2013:08:28 06:58:17
p9254
aV2854
p9255
aa(lp9256
V2013:08:28 06:59:27
p9257
aV2860
p9258
aa(lp9259
V2013:08:28 06:59:32
p9260
aV2855
p9261
aa(lp9262
V2013:08:28 06:59:56
p9263
aV2859
p9264
aa(lp9265
V2013:08:28 07:43:01
p9266
aV2830
p9267
aa(lp9268
V2013:08:28 07:44:09
p9269
aV2831
p9270
aa(lp9271
V2013:08:28 08:05:25
p9272
aV2832
p9273
aa(lp9274
V2013:08:28 11:23:17
p9275
aV2833
p9276
aa(lp9277
V2013:08:28 11:38:26
p9278
aV2834
p9279
aa(lp9280
V2013:08:29 08:37:17
p9281
aV2835
p9282
aa(lp9283
V2013:08:29 09:06:20
p9284
aV2836
p9285
aa(lp9286
V2013:08:29 15:45:57
p9287
aV2837
p9288
aa(lp9289
V2013:08:30 15:25:11
p9290
aV2838
p9291
aa(lp9292
V2013:08:30 15:41:18
p9293
aV2839
p9294
aa(lp9295
V2013:08:30 15:47:42
p9296
aV2840
p9297
aa(lp9298
V2013:08:30 17:46:49
p9299
aV2841
p9300
aa(lp9301
V2013:08:30 17:50:00
p9302
aV2842
p9303
aa(lp9304
V2013:08:31 12:29:43
p9305
aV2843
p9306
aa(lp9307
V2013:08:31 15:03:37
p9308
aV2844
p9309
aa(lp9310
V2013:08:31 15:22:43
p9311
aV2845
p9312
aa(lp9313
V2013:09:01 10:08:58
p9314
aV2846
p9315
aa(lp9316
V2013:09:01 10:30:22
p9317
aV2847
p9318
aa(lp9319
V2013:09:02 09:17:41
p9320
aV2849
p9321
aa(lp9322
V2013:09:02 09:44:13
p9323
aV2848
p9324
aa(lp9325
V2013:09:03 06:51:02
p9326
aV2862
p9327
aa(lp9328
V2013:09:03 06:51:59
p9329
aV2857
p9330
aa(lp9331
V2013:09:03 06:52:04
p9332
aV2861
p9333
aa(lp9334
V2013:09:03 06:53:23
p9335
aV2858
p9336
aa(lp9337
V2013:09:03 06:53:41
p9338
aV2852
p9339
aa(lp9340
V2013:09:03 07:37:50
p9341
aV2850
p9342
aa(lp9343
V2013:09:03 08:04:08
p9344
aV2856
p9345
aa(lp9346
V2013:09:03 08:04:15
p9347
aV2864
p9348
aa(lp9349
V2013:09:03 08:04:35
p9350
aV2863
p9351
aa(lp9352
V2013:09:03 08:49:50
p9353
aV2851
p9354
aa(lp9355
V2013:09:08 10:35:13
p9356
aV2865
p9357
aa(lp9358
V2013:09:13 18:53:38
p9359
aV2866
p9360
aa(lp9361
V2013:09:14 13:35:23
p9362
aV2867
p9363
aa(lp9364
V2013:09:17 08:05:16
p9365
aV2868
p9366
aa(lp9367
V2013:09:17 08:05:17
p9368
aV2888
p9369
aa(lp9370
V2013:09:20 12:46:21
p9371
aV2880
p9372
aa(lp9373
V2013:09:20 13:04:30
p9374
aV2879
p9375
aa(lp9376
V2013:09:20 16:29:40
p9377
aV2878
p9378
aa(lp9379
V2013:09:20 16:36:41
p9380
aV2874
p9381
aa(lp9382
V2013:09:20 17:04:23
p9383
aV2875
p9384
aa(lp9385
V2013:09:20 17:04:23
p9386
aV2886
p9387
aa(lp9388
V2013:09:20 19:02:43
p9389
aV2884
p9390
aa(lp9391
V2013:09:21 13:22:11
p9392
aV2887
p9393
aa(lp9394
V2013:09:21 14:19:24
p9395
aV2892
p9396
aa(lp9397
V2013:09:21 17:01:16
p9398
aV2870
p9399
aa(lp9400
V2013:09:22 18:06:11
p9401
aV2893
p9402
aa(lp9403
V2013:09:22 20:28:57
p9404
aV2877
p9405
aa(lp9406
V2013:09:23 07:12:04
p9407
aV2889
p9408
aa(lp9409
V2013:09:23 09:14:48
p9410
aV2876
p9411
aa(lp9412
V2013:09:23 09:14:50
p9413
aV2881
p9414
aa(lp9415
V2013:09:23 09:22:04
p9416
aV2883
p9417
aa(lp9418
V2013:09:23 11:58:50
p9419
aV2891
p9420
aa(lp9421
V2013:09:23 11:58:50
p9422
aV3653
p9423
aa(lp9424
V2013:09:23 11:58:50
p9425
aV3653
p9426
aa(lp9427
V2013:09:23 11:58:50
p9428
aV3653
p9429
aa(lp9430
V2013:09:23 11:58:50
p9431
aV3653
p9432
aa(lp9433
V2013:09:23 11:58:56
p9434
aV2882
p9435
aa(lp9436
V2013:09:23 11:58:56
p9437
aV3653
p9438
aa(lp9439
V2013:09:23 11:58:56
p9440
aV3653
p9441
aa(lp9442
V2013:09:23 11:58:56
p9443
aV3653
p9444
aa(lp9445
V2013:09:23 11:58:56
p9446
aV3653
p9447
aa(lp9448
V2013:09:23 12:09:31
p9449
aV2894
p9450
aa(lp9451
V2013:09:23 12:09:38
p9452
aV2869
p9453
aa(lp9454
V2013:09:23 12:09:38
p9455
aV3653
p9456
aa(lp9457
V2013:09:23 12:09:38
p9458
aV3653
p9459
aa(lp9460
V2013:09:23 12:09:38
p9461
aV3653
p9462
aa(lp9463
V2013:09:23 12:09:38
p9464
aV3653
p9465
aa(lp9466
V2013:09:23 12:25:17
p9467
aV2873
p9468
aa(lp9469
V2013:09:26 15:47:10
p9470
aV2895
p9471
aa(lp9472
V2013:09:28 09:36:37
p9473
aV2896
p9474
aa(lp9475
V2013:09:28 12:18:33
p9476
aV2897
p9477
aa(lp9478
V2013:09:29 12:10:59
p9479
aV2898
p9480
aa(lp9481
V2013:09:29 17:45:22
p9482
aV2899
p9483
aa(lp9484
V2013:10:05 18:14:21
p9485
aV2903
p9486
aa(lp9487
V2013:10:05 18:18:58
p9488
aV2902
p9489
aa(lp9490
V2013:10:05 20:02:16
p9491
aV2901
p9492
aa(lp9493
V2013:10:05 21:02:44
p9494
aV2900
p9495
aa(lp9496
V2013:10:06 15:39:46
p9497
aV2904
p9498
aa(lp9499
V2013:10:06 17:25:33
p9500
aV2905
p9501
aa(lp9502
V2013:10:06 17:33:12
p9503
aV2906
p9504
aa(lp9505
V2013:10:09 08:36:17
p9506
aV2907
p9507
aa(lp9508
V2013:10:11 17:33:17
p9509
aV2908
p9510
aa(lp9511
V2013:10:12 13:05:09
p9512
aV2909
p9513
aa(lp9514
V2013:10:13 07:46:42
p9515
aV2910
p9516
aa(lp9517
V2013:10:13 10:13:46
p9518
aV2917
p9519
aa(lp9520
V2013:10:13 10:15:41
p9521
aV2911
p9522
aa(lp9523
V2013:10:13 10:16:05
p9524
aV2912
p9525
aa(lp9526
V2013:10:13 10:29:59
p9527
aV2914
p9528
aa(lp9529
V2013:10:13 10:30:52
p9530
aV2913
p9531
aa(lp9532
V2013:10:13 12:02:51
p9533
aV2916
p9534
aa(lp9535
V2013:10:13 12:35:52
p9536
aV2961
p9537
aa(lp9538
V2013:10:13 16:00:42
p9539
aV2915
p9540
aa(lp9541
V2013:10:14 07:58:07
p9542
aV2918
p9543
aa(lp9544
V2013:10:18 08:04:01
p9545
aV2919
p9546
aa(lp9547
V2013:10:19 12:53:34
p9548
aV2920
p9549
aa(lp9550
V2013:10:20 08:44:44
p9551
aV2921
p9552
aa(lp9553
V2013:10:20 08:54:20
p9554
aV2922
p9555
aa(lp9556
V2013:10:20 10:40:52
p9557
aV2923
p9558
aa(lp9559
V2013:10:20 11:26:47
p9560
aV2924
p9561
aa(lp9562
V2013:10:21 07:54:28
p9563
aV2925
p9564
aa(lp9565
V2013:10:21 09:13:23
p9566
aV2927
p9567
aa(lp9568
V2013:10:21 10:21:55
p9569
aV2926
p9570
aa(lp9571
V2013:10:25 10:10:37
p9572
aV2928
p9573
aa(lp9574
V2013:10:25 19:11:18
p9575
aV2929
p9576
aa(lp9577
V2013:10:26 11:03:45
p9578
aV2937
p9579
aa(lp9580
V2013:10:26 11:18:10
p9581
aV2930
p9582
aa(lp9583
V2013:10:26 11:51:23
p9584
aV2936
p9585
aa(lp9586
V2013:10:26 12:14:46
p9587
aV2932
p9588
aa(lp9589
V2013:10:26 12:15:56
p9590
aV2931
p9591
aa(lp9592
V2013:10:26 12:38:16
p9593
aV2977
p9594
aa(lp9595
V2013:10:26 12:38:30
p9596
aV2935
p9597
aa(lp9598
V2013:10:26 13:07:04
p9599
aV2934
p9600
aa(lp9601
V2013:10:26 13:37:18
p9602
aV2933
p9603
aa(lp9604
V2013:10:30 08:03:00
p9605
aV2938
p9606
aa(lp9607
V2013:10:31 07:48:19
p9608
aV2939
p9609
aa(lp9610
V2013:10:31 12:38:13
p9611
aV2946
p9612
aa(lp9613
V2013:10:31 15:14:21
p9614
aV2940
p9615
aa(lp9616
V2013:10:31 18:42:28
p9617
aV2948
p9618
aa(lp9619
V2013:10:31 18:42:28
p9620
aV2949
p9621
aa(lp9622
V2013:10:31 20:51:26
p9623
aV2944
p9624
aa(lp9625
V2013:10:31 20:51:28
p9626
aV2945
p9627
aa(lp9628
V2013:10:31 22:21:20
p9629
aV2947
p9630
aa(lp9631
V2013:11:01 16:58:37
p9632
aV2950
p9633
aa(lp9634
V2013:11:02 09:13:18
p9635
aV2951
p9636
aa(lp9637
V2013:11:02 15:06:21
p9638
aV2952
p9639
aa(lp9640
V2013:11:03 12:37:43
p9641
aV2953
p9642
aa(lp9643
V2013:11:03 12:51:44
p9644
aV2957
p9645
aa(lp9646
V2013:11:03 12:57:43
p9647
aV2955
p9648
aa(lp9649
V2013:11:03 18:00:11
p9650
aV2954
p9651
aa(lp9652
V2013:11:03 18:00:36
p9653
aV2956
p9654
aa(lp9655
V2013:11:04 18:43:49
p9656
aV2958
p9657
aa(lp9658
V2013:11:06 13:26:28
p9659
aV2959
p9660
aa(lp9661
V2013:11:07 21:15:14
p9662
aV2960
p9663
aa(lp9664
V2013:11:08 19:54:00
p9665
aV2962
p9666
aa(lp9667
V2013:11:09 10:47:40
p9668
aV2963
p9669
aa(lp9670
V2013:11:10 10:09:59
p9671
aV2964
p9672
aa(lp9673
V2013:11:10 10:16:19
p9674
aV2965
p9675
aa(lp9676
V2013:11:10 12:16:07
p9677
aV2966
p9678
aa(lp9679
V2013:11:11 14:10:47
p9680
aV2967
p9681
aa(lp9682
V2013:11:12 18:37:19
p9683
aV2968
p9684
aa(lp9685
V2013:11:14 07:26:22
p9686
aV2969
p9687
aa(lp9688
V2013:11:16 09:24:02
p9689
aV2970
p9690
aa(lp9691
V2013:11:16 11:54:21
p9692
aV2972
p9693
aa(lp9694
V2013:11:16 13:02:55
p9695
aV2971
p9696
aa(lp9697
V2013:11:16 14:30:22
p9698
aV2973
p9699
aa(lp9700
V2013:11:16 15:08:34
p9701
aV2974
p9702
aa(lp9703
V2013:11:17 12:01:12
p9704
aV2975
p9705
aa(lp9706
V2013:11:17 15:53:43
p9707
aV2976
p9708
aa(lp9709
V2013:11:20 19:14:18
p9710
aV2978
p9711
aa(lp9712
V2013:11:20 19:16:30
p9713
aV2979
p9714
aa(lp9715
V2013:11:21 07:45:58
p9716
aV2980
p9717
aa(lp9718
V2013:11:23 10:26:11
p9719
aV2981
p9720
aa(lp9721
V2013:11:23 10:26:11
p9722
aV2982
p9723
aa(lp9724
V2013:11:24 10:24:52
p9725
aV2983
p9726
aa(lp9727
V2013:11:24 10:32:43
p9728
aV2984
p9729
aa(lp9730
V2013:11:24 10:40:21
p9731
aV2985
p9732
aa(lp9733
V2013:11:24 10:41:58
p9734
aV2986
p9735
aa(lp9736
V2013:11:24 12:11:41
p9737
aV2987
p9738
aa(lp9739
V2013:11:25 10:42:13
p9740
aV2988
p9741
aa(lp9742
V2013:11:25 11:04:41
p9743
aV2989
p9744
aa(lp9745
V2013:11:25 11:50:33
p9746
aV2990
p9747
aa(lp9748
V2013:11:27 07:33:40
p9749
aV2993
p9750
aa(lp9751
V2013:11:27 08:45:08
p9752
aV2991
p9753
aa(lp9754
V2013:11:27 08:45:19
p9755
aV2992
p9756
aa(lp9757
V2013:11:28 12:31:18
p9758
aV2994
p9759
aa(lp9760
V2013:11:28 12:31:52
p9761
aV2995
p9762
aa(lp9763
V2013:11:28 12:31:52
p9764
aV2996
p9765
aa(lp9766
V2013:11:29 10:49:44
p9767
aV2997
p9768
aa(lp9769
V2013:11:29 10:53:37
p9770
aV2998
p9771
aa(lp9772
V2013:11:29 11:13:59
p9773
aV2999
p9774
aa(lp9775
V2013:11:29 11:19:47
p9776
aV3000
p9777
aa(lp9778
V2013:11:29 11:45:40
p9779
aV3001
p9780
aa(lp9781
V2013:11:29 12:02:45
p9782
aV3002
p9783
aa(lp9784
V2013:11:29 12:20:12
p9785
aV3003
p9786
aa(lp9787
V2013:11:29 13:46:49
p9788
aV3004
p9789
aa(lp9790
V2013:11:29 13:47:34
p9791
aV3005
p9792
aa(lp9793
V2013:11:29 17:54:58
p9794
aV3006
p9795
aa(lp9796
V2013:11:29 19:09:52
p9797
aV3007
p9798
aa(lp9799
V2013:11:29 19:58:18
p9800
aV3008
p9801
aa(lp9802
V2013:11:30 09:39:48
p9803
aV3010
p9804
aa(lp9805
V2013:11:30 09:59:22
p9806
aV3009
p9807
aa(lp9808
V2013:11:30 11:13:14
p9809
aV3011
p9810
aa(lp9811
V2013:11:30 11:14:56
p9812
aV3012
p9813
aa(lp9814
V2013:11:30 12:09:10
p9815
aV3013
p9816
aa(lp9817
V2013:11:30 12:31:55
p9818
aV3014
p9819
aa(lp9820
V2013:11:30 14:06:12
p9821
aV3015
p9822
aa(lp9823
V2013:12:01 16:40:59
p9824
aV3016
p9825
aa(lp9826
V2013:12:02 08:03:06
p9827
aV3017
p9828
aa(lp9829
V2013:12:02 19:53:01
p9830
aV3018
p9831
aa(lp9832
V2013:12:03 08:32:18
p9833
aV3019
p9834
aa(lp9835
V2013:12:06 07:49:19
p9836
aV3020
p9837
aa(lp9838
V2013:12:07 09:53:09
p9839
aV3022
p9840
aa(lp9841
V2013:12:07 11:33:40
p9842
aV3021
p9843
aa(lp9844
V2013:12:07 16:40:25
p9845
aV3023
p9846
aa(lp9847
V2013:12:07 16:52:44
p9848
aV3024
p9849
aa(lp9850
V2013:12:07 17:11:21
p9851
aV3025
p9852
aa(lp9853
V2013:12:08 10:45:41
p9854
aV3028
p9855
aa(lp9856
V2013:12:08 10:46:39
p9857
aV3029
p9858
aa(lp9859
V2013:12:08 18:54:24
p9860
aV3027
p9861
aa(lp9862
V2013:12:10 08:48:45
p9863
aV3026
p9864
aa(lp9865
V2013:12:13 07:58:31
p9866
aV3030
p9867
aa(lp9868
V2013:12:15 13:01:25
p9869
aV3031
p9870
aa(lp9871
V2013:12:15 16:10:10
p9872
aV3032
p9873
aa(lp9874
V2013:12:15 16:35:23
p9875
aV3033
p9876
aa(lp9877
V2013:12:15 17:00:34
p9878
aV3034
p9879
aa(lp9880
V2013:12:16 08:30:22
p9881
aV3035
p9882
aa(lp9883
V2013:12:16 08:30:36
p9884
aV3036
p9885
aa(lp9886
V2013:12:17 08:29:35
p9887
aV3037
p9888
aa(lp9889
V2013:12:17 08:33:00
p9890
aV3038
p9891
aa(lp9892
V2013:12:20 08:49:31
p9893
aV3039
p9894
aa(lp9895
V2013:12:21 10:19:00
p9896
aV3040
p9897
aa(lp9898
V2013:12:21 11:06:15
p9899
aV3041
p9900
aa(lp9901
V2013:12:21 12:04:51
p9902
aV3042
p9903
aa(lp9904
V2013:12:21 18:27:14
p9905
aV3044
p9906
aa(lp9907
V2013:12:21 19:05:04
p9908
aV3043
p9909
aa(lp9910
V2013:12:21 19:26:18
p9911
aV3045
p9912
aa(lp9913
V2013:12:22 09:06:54
p9914
aV3046
p9915
aa(lp9916
V2013:12:22 09:06:54
p9917
aV3048
p9918
aa(lp9919
V2013:12:22 09:22:53
p9920
aV3047
p9921
aa(lp9922
V2013:12:22 09:22:53
p9923
aV3049
p9924
aa(lp9925
V2013:12:22 17:40:12
p9926
aV3050
p9927
aa(lp9928
V2013:12:23 09:07:17
p9929
aV3051
p9930
aa(lp9931
V2013:12:23 09:15:31
p9932
aV3052
p9933
aa(lp9934
V2013:12:23 16:53:20
p9935
aV3053
p9936
aa(lp9937
V2013:12:23 17:23:25
p9938
aV3054
p9939
aa(lp9940
V2013:12:23 20:42:47
p9941
aV3055
p9942
aa(lp9943
V2013:12:23 22:40:00
p9944
aV3056
p9945
aa(lp9946
V2013:12:24 08:14:37
p9947
aV3057
p9948
aa(lp9949
V2013:12:24 10:38:10
p9950
aV3058
p9951
aa(lp9952
V2013:12:24 12:21:54
p9953
aV3059
p9954
aa(lp9955
V2013:12:24 22:23:32
p9956
aV3060
p9957
aa(lp9958
V2013:12:24 22:23:34
p9959
aV3061
p9960
aa(lp9961
V2013:12:24 22:23:35
p9962
aV3062
p9963
aa(lp9964
V2013:12:24 22:23:36
p9965
aV3063
p9966
aa(lp9967
V2013:12:24 22:23:38
p9968
aV3064
p9969
aa(lp9970
V2013:12:24 22:23:38
p9971
aV3065
p9972
aa(lp9973
V2013:12:24 22:23:40
p9974
aV3066
p9975
aa(lp9976
V2013:12:24 22:23:41
p9977
aV3067
p9978
aa(lp9979
V2013:12:24 22:23:43
p9980
aV3068
p9981
aa(lp9982
V2013:12:24 22:23:44
p9983
aV3069
p9984
aa(lp9985
V2013:12:25 08:29:18
p9986
aV3075
p9987
aa(lp9988
V2013:12:25 08:29:24
p9989
aV3074
p9990
aa(lp9991
V2013:12:25 08:37:47
p9992
aV3071
p9993
aa(lp9994
V2013:12:25 09:28:24
p9995
aV3072
p9996
aa(lp9997
V2013:12:25 11:06:11
p9998
aV3073
p9999
aa(lp10000
V2013:12:25 14:28:09
p10001
aV3070
p10002
aa(lp10003
V2013:12:25 19:59:44
p10004
aV3076
p10005
aa(lp10006
V2013:12:25 20:34:30
p10007
aV3077
p10008
aa(lp10009
V2013:12:26 11:28:16
p10010
aV3080
p10011
aa(lp10012
V2013:12:26 11:50:31
p10013
aV3078
p10014
aa(lp10015
V2013:12:26 13:12:29
p10016
aV3079
p10017
aa(lp10018
V2013:12:27 13:49:48
p10019
aV3081
p10020
aa(lp10021
V2013:12:27 19:27:25
p10022
aV3082
p10023
aa(lp10024
V2013:12:29 11:43:21
p10025
aV3083
p10026
aa(lp10027
V2013:12:29 12:04:21
p10028
aV3084
p10029
aa(lp10030
V2013:12:29 18:33:51
p10031
aV3085
p10032
aa(lp10033
V2014:01:01 11:20:31
p10034
aV3087
p10035
aa(lp10036
V2014:01:01 18:05:19
p10037
aV3088
p10038
aa(lp10039
V2014:01:01 22:03:14
p10040
aV3086
p10041
aa(lp10042
V2014:01:05 12:45:32
p10043
aV3099
p10044
aa(lp10045
V2014:01:09 10:39:16
p10046
aV3089
p10047
aa(lp10048
V2014:01:10 19:22:03
p10049
aV3091
p10050
aa(lp10051
V2014:01:10 19:22:04
p10052
aV3092
p10053
aa(lp10054
V2014:01:10 19:22:05
p10055
aV3093
p10056
aa(lp10057
V2014:01:10 19:22:06
p10058
aV3090
p10059
aa(lp10060
V2014:01:12 12:54:53
p10061
aV3094
p10062
aa(lp10063
V2014:01:12 15:46:53
p10064
aV3100
p10065
aa(lp10066
V2014:01:12 15:47:04
p10067
aV3101
p10068
aa(lp10069
V2014:01:14 08:41:14
p10070
aV3095
p10071
aa(lp10072
V2014:01:16 18:27:27
p10073
aV3096
p10074
aa(lp10075
V2014:01:18 11:07:06
p10076
aV3097
p10077
aa(lp10078
V2014:01:18 12:25:53
p10079
aV3103
p10080
aa(lp10081
V2014:01:18 12:44:54
p10082
aV3098
p10083
aa(lp10084
V2014:01:18 13:00:14
p10085
aV3102
p10086
aa(lp10087
V2014:01:19 09:28:35
p10088
aV3108
p10089
aa(lp10090
V2014:01:19 10:59:27
p10091
aV3109
p10092
aa(lp10093
V2014:01:19 14:49:37
p10094
aV3105
p10095
aa(lp10096
V2014:01:19 17:33:51
p10097
aV3107
p10098
aa(lp10099
V2014:01:19 19:12:14
p10100
aV3106
p10101
aa(lp10102
V2014:01:20 11:28:58
p10103
aV3110
p10104
aa(lp10105
V2014:01:20 11:29:13
p10106
aV3111
p10107
aa(lp10108
V2014:01:20 14:24:15
p10109
aV3112
p10110
aa(lp10111
V2014:01:21 09:08:43
p10112
aV3113
p10113
aa(lp10114
V2014:01:21 09:32:20
p10115
aV3114
p10116
aa(lp10117
V2014:01:25 10:25:30
p10118
aV3116
p10119
aa(lp10120
V2014:01:25 15:10:33
p10121
aV3115
p10122
aa(lp10123
V2014:01:26 16:27:44
p10124
aV3117
p10125
aa(lp10126
V2014:01:27 10:40:25
p10127
aV3118
p10128
aa(lp10129
V2014:01:27 19:13:22
p10130
aV3119
p10131
aa(lp10132
V2014:02:01 08:35:15
p10133
aV3120
p10134
aa(lp10135
V2014:02:01 09:37:53
p10136
aV3121
p10137
aa(lp10138
V2014:02:04 07:44:37
p10139
aV3122
p10140
aa(lp10141
V2014:02:04 08:00:05
p10142
aV3123
p10143
aa(lp10144
V2014:02:06 17:44:04
p10145
aV3124
p10146
aa(lp10147
V2014:02:06 19:02:46
p10148
aV3125
p10149
aa(lp10150
V2014:02:09 10:57:08
p10151
aV3126
p10152
aa(lp10153
V2014:02:09 13:11:27
p10154
aV3127
p10155
aa(lp10156
V2014:02:11 08:39:48
p10157
aV3128
p10158
aa(lp10159
V2014:02:12 08:27:21
p10160
aV3129
p10161
aa(lp10162
V2014:02:12 08:33:55
p10163
aV3130
p10164
aa(lp10165
V2014:02:12 19:30:54
p10166
aV3131
p10167
aa(lp10168
V2014:02:13 07:48:15
p10169
aV3132
p10170
aa(lp10171
V2014:02:13 08:44:19
p10172
aV3133
p10173
aa(lp10174
V2014:02:13 13:06:28
p10175
aV3134
p10176
aa(lp10177
V2014:02:13 17:45:56
p10178
aV3135
p10179
aa(lp10180
V2014:02:14 09:58:40
p10181
aV3150
p10182
aa(lp10183
V2014:02:14 09:59:51
p10184
aV3151
p10185
aa(lp10186
V2014:02:14 10:00:20
p10187
aV3152
p10188
aa(lp10189
V2014:02:14 10:43:52
p10190
aV3136
p10191
aa(lp10192
V2014:02:14 11:40:14
p10193
aV3137
p10194
aa(lp10195
V2014:02:14 11:40:14
p10196
aV3138
p10197
aa(lp10198
V2014:02:14 11:58:02
p10199
aV3153
p10200
aa(lp10201
V2014:02:14 12:04:03
p10202
aV3154
p10203
aa(lp10204
V2014:02:14 12:04:07
p10205
aV3155
p10206
aa(lp10207
V2014:02:14 12:04:11
p10208
aV3156
p10209
aa(lp10210
V2014:02:14 12:04:53
p10211
aV3139
p10212
aa(lp10213
V2014:02:14 12:05:56
p10214
aV3157
p10215
aa(lp10216
V2014:02:14 12:14:13
p10217
aV3158
p10218
aa(lp10219
V2014:02:14 12:17:07
p10220
aV3140
p10221
aa(lp10222
V2014:02:14 12:19:35
p10223
aV3159
p10224
aa(lp10225
V2014:02:14 12:20:42
p10226
aV3160
p10227
aa(lp10228
V2014:02:14 12:20:54
p10229
aV3161
p10230
aa(lp10231
V2014:02:14 12:21:27
p10232
aV3162
p10233
aa(lp10234
V2014:02:14 14:39:55
p10235
aV3141
p10236
aa(lp10237
V2014:02:14 16:22:40
p10238
aV3142
p10239
aa(lp10240
V2014:02:15 09:19:22
p10241
aV3144
p10242
aa(lp10243
V2014:02:15 10:51:53
p10244
aV3145
p10245
aa(lp10246
V2014:02:15 11:59:47
p10247
aV3146
p10248
aa(lp10249
V2014:02:15 12:01:10
p10250
aV3147
p10251
aa(lp10252
V2014:02:15 12:04:33
p10253
aV3174
p10254
aa(lp10255
V2014:02:15 14:10:35
p10256
aV3163
p10257
aa(lp10258
V2014:02:15 14:10:54
p10259
aV3164
p10260
aa(lp10261
V2014:02:15 14:19:27
p10262
aV3165
p10263
aa(lp10264
V2014:02:15 14:20:35
p10265
aV3166
p10266
aa(lp10267
V2014:02:15 14:26:18
p10268
aV3175
p10269
aa(lp10270
V2014:02:15 14:26:59
p10271
aV3176
p10272
aa(lp10273
V2014:02:15 14:29:52
p10274
aV3177
p10275
aa(lp10276
V2014:02:15 14:32:52
p10277
aV3167
p10278
aa(lp10279
V2014:02:15 14:35:20
p10280
aV3178
p10281
aa(lp10282
V2014:02:15 14:42:21
p10283
aV3179
p10284
aa(lp10285
V2014:02:15 14:55:14
p10286
aV3168
p10287
aa(lp10288
V2014:02:15 14:56:06
p10289
aV3180
p10290
aa(lp10291
V2014:02:15 14:56:36
p10292
aV3169
p10293
aa(lp10294
V2014:02:15 14:57:55
p10295
aV3181
p10296
aa(lp10297
V2014:02:15 14:59:18
p10298
aV3148
p10299
aa(lp10300
V2014:02:15 15:07:16
p10301
aV3170
p10302
aa(lp10303
V2014:02:15 15:09:17
p10304
aV3171
p10305
aa(lp10306
V2014:02:15 15:24:39
p10307
aV3172
p10308
aa(lp10309
V2014:02:15 15:24:41
p10310
aV3173
p10311
aa(lp10312
V2014:02:15 17:27:04
p10313
aV3149
p10314
aa(lp10315
V2014:02:16 04:43:15
p10316
aV3143
p10317
aa(lp10318
V2014:02:16 07:12:17
p10319
aV3182
p10320
aa(lp10321
V2014:02:16 07:12:33
p10322
aV3199
p10323
aa(lp10324
V2014:02:16 07:27:23
p10325
aV3195
p10326
aa(lp10327
V2014:02:16 08:29:46
p10328
aV3183
p10329
aa(lp10330
V2014:02:16 09:17:23
p10331
aV3192
p10332
aa(lp10333
V2014:02:16 09:17:35
p10334
aV3198
p10335
aa(lp10336
V2014:02:16 09:31:48
p10337
aV3194
p10338
aa(lp10339
V2014:02:16 09:52:07
p10340
aV3197
p10341
aa(lp10342
V2014:02:16 09:52:27
p10343
aV3200
p10344
aa(lp10345
V2014:02:16 09:56:55
p10346
aV3189
p10347
aa(lp10348
V2014:02:16 10:45:31
p10349
aV3188
p10350
aa(lp10351
V2014:02:16 10:46:40
p10352
aV3191
p10353
aa(lp10354
V2014:02:16 11:19:12
p10355
aV3196
p10356
aa(lp10357
V2014:02:16 11:22:36
p10358
aV3193
p10359
aa(lp10360
V2014:02:16 11:24:19
p10361
aV3185
p10362
aa(lp10363
V2014:02:16 11:28:21
p10364
aV3186
p10365
aa(lp10366
V2014:02:16 11:38:56
p10367
aV3190
p10368
aa(lp10369
V2014:02:16 13:00:46
p10370
aV3187
p10371
aa(lp10372
V2014:02:16 17:41:13
p10373
aV3201
p10374
aa(lp10375
V2014:02:16 22:19:00
p10376
aV3184
p10377
aa(lp10378
V2014:02:17 09:27:09
p10379
aV3202
p10380
aa(lp10381
V2014:02:17 10:18:44
p10382
aV3203
p10383
aa(lp10384
V2014:02:17 10:27:47
p10385
aV3204
p10386
aa(lp10387
V2014:02:17 10:28:09
p10388
aV3205
p10389
aa(lp10390
V2014:02:17 13:44:08
p10391
aV3207
p10392
aa(lp10393
V2014:02:17 13:59:07
p10394
aV3206
p10395
aa(lp10396
V2014:02:21 07:57:33
p10397
aV3208
p10398
aa(lp10399
V2014:02:21 07:58:48
p10400
aV3209
p10401
aa(lp10402
V2014:02:24 07:32:19
p10403
aV3210
p10404
aa(lp10405
V2014:02:24 11:23:08
p10406
aV3211
p10407
aa(lp10408
V2014:02:25 05:03:56
p10409
aV3212
p10410
aa(lp10411
V2014:02:25 18:21:49
p10412
aV3213
p10413
aa(lp10414
V2014:02:26 08:42:09
p10415
aV3214
p10416
aa(lp10417
V2014:03:01 09:59:54
p10418
aV3215
p10419
aa(lp10420
V2014:03:02 09:21:58
p10421
aV3216
p10422
aa(lp10423
V2014:03:05 07:48:27
p10424
aV3217
p10425
aa(lp10426
V2014:03:05 08:37:41
p10427
aV3218
p10428
aa(lp10429
V2014:03:08 09:13:23
p10430
aV3219
p10431
aa(lp10432
V2014:03:08 09:13:42
p10433
aV3220
p10434
aa(lp10435
V2014:03:08 09:20:53
p10436
aV3221
p10437
aa(lp10438
V2014:03:09 16:10:23
p10439
aV3230
p10440
aa(lp10441
V2014:03:09 17:13:26
p10442
aV3231
p10443
aa(lp10444
V2014:03:10 19:00:25
p10445
aV3232
p10446
aa(lp10447
V2014:03:11 07:59:08
p10448
aV3233
p10449
aa(lp10450
V2014:03:11 08:37:53
p10451
aV3234
p10452
aa(lp10453
V2014:03:11 20:15:31
p10454
aV3235
p10455
aa(lp10456
V2014:03:12 08:24:01
p10457
aV3236
p10458
aa(lp10459
V2014:03:13 07:56:52
p10460
aV3237
p10461
aa(lp10462
V2014:03:14 10:33:06
p10463
aV3238
p10464
aa(lp10465
V2014:03:14 11:00:27
p10466
aV3241
p10467
aa(lp10468
V2014:03:14 11:28:11
p10469
aV3239
p10470
aa(lp10471
V2014:03:14 16:32:31
p10472
aV3242
p10473
aa(lp10474
V2014:03:14 17:48:58
p10475
aV3243
p10476
aa(lp10477
V2014:03:14 18:00:38
p10478
aV3244
p10479
aa(lp10480
V2014:03:16 08:18:57
p10481
aV3290
p10482
aa(lp10483
V2014:03:16 08:54:24
p10484
aV3291
p10485
aa(lp10486
V2014:03:16 10:18:48
p10487
aV3248
p10488
aa(lp10489
V2014:03:16 10:32:55
p10490
aV3292
p10491
aa(lp10492
V2014:03:16 10:42:16
p10493
aV3293
p10494
aa(lp10495
V2014:03:16 11:18:58
p10496
aV3247
p10497
aa(lp10498
V2014:03:16 11:24:04
p10499
aV3294
p10500
aa(lp10501
V2014:03:16 13:23:18
p10502
aV3251
p10503
aa(lp10504
V2014:03:16 13:31:59
p10505
aV3250
p10506
aa(lp10507
V2014:03:16 13:32:57
p10508
aV3249
p10509
aa(lp10510
V2014:03:16 14:24:04
p10511
aV3246
p10512
aa(lp10513
V2014:03:16 14:35:22
p10514
aV3245
p10515
aa(lp10516
V2014:03:19 08:36:42
p10517
aV3252
p10518
aa(lp10519
V2014:03:19 13:11:43
p10520
aV3253
p10521
aa(lp10522
V2014:03:20 07:32:37
p10523
aV3254
p10524
aa(lp10525
V2014:03:20 07:32:39
p10526
aV3255
p10527
aa(lp10528
V2014:03:22 10:43:19
p10529
aV3256
p10530
aa(lp10531
V2014:03:22 12:04:24
p10532
aV3259
p10533
aa(lp10534
V2014:03:22 12:10:38
p10535
aV3260
p10536
aa(lp10537
V2014:03:22 12:37:13
p10538
aV3257
p10539
aa(lp10540
V2014:03:22 13:38:57
p10541
aV3258
p10542
aa(lp10543
V2014:03:24 09:21:37
p10544
aV3261
p10545
aa(lp10546
V2014:03:24 18:52:48
p10547
aV3262
p10548
aa(lp10549
V2014:03:27 07:48:26
p10550
aV3263
p10551
aa(lp10552
V2014:03:29 09:03:00
p10553
aV3264
p10554
aa(lp10555
V2014:03:30 16:57:12
p10556
aV3265
p10557
aa(lp10558
V2014:03:30 17:30:42
p10559
aV3266
p10560
aa(lp10561
V2014:03:31 09:38:02
p10562
aV3285
p10563
aa(lp10564
V2014:03:31 10:03:41
p10565
aV3287
p10566
aa(lp10567
V2014:03:31 10:07:28
p10568
aV3282
p10569
aa(lp10570
V2014:03:31 10:08:36
p10571
aV3284
p10572
aa(lp10573
V2014:03:31 10:33:26
p10574
aV3283
p10575
aa(lp10576
V2014:03:31 10:35:24
p10577
aV3286
p10578
aa(lp10579
V2014:03:31 16:51:54
p10580
aV3278
p10581
aa(lp10582
V2014:03:31 16:55:06
p10583
aV3269
p10584
aa(lp10585
V2014:03:31 17:04:32
p10586
aV3274
p10587
aa(lp10588
V2014:03:31 17:05:47
p10589
aV3276
p10590
aa(lp10591
V2014:04:01 10:00:58
p10592
aV3271
p10593
aa(lp10594
V2014:04:01 10:22:11
p10595
aV3277
p10596
aa(lp10597
V2014:04:01 10:41:35
p10598
aV3268
p10599
aa(lp10600
V2014:04:01 12:02:51
p10601
aV3275
p10602
aa(lp10603
V2014:04:01 13:14:32
p10604
aV3273
p10605
aa(lp10606
V2014:04:01 13:36:04
p10607
aV3267
p10608
aa(lp10609
V2014:04:01 13:39:41
p10610
aV3279
p10611
aa(lp10612
V2014:04:01 14:19:18
p10613
aV3272
p10614
aa(lp10615
V2014:04:01 14:20:01
p10616
aV3270
p10617
aa(lp10618
V2014:04:01 14:23:16
p10619
aV3280
p10620
aa(lp10621
V2014:04:01 14:57:31
p10622
aV3281
p10623
aa(lp10624
V2014:04:05 09:01:22
p10625
aV3288
p10626
aa(lp10627
V2014:04:05 12:50:18
p10628
aV3296
p10629
aa(lp10630
V2014:04:09 08:24:48
p10631
aV3289
p10632
aa(lp10633
V2014:04:10 08:26:00
p10634
aV3295
p10635
aa(lp10636
V2014:04:12 10:10:33
p10637
aV3297
p10638
aa(lp10639
V2014:04:12 10:12:25
p10640
aV3298
p10641
aa(lp10642
V2014:04:12 12:04:14
p10643
aV3299
p10644
aa(lp10645
V2014:04:12 12:04:49
p10646
aV3300
p10647
aa(lp10648
V2014:04:12 17:20:27
p10649
aV3301
p10650
aa(lp10651
V2014:04:13 15:44:17
p10652
aV3302
p10653
aa(lp10654
V2014:04:15 08:28:31
p10655
aV3303
p10656
aa(lp10657
V2014:04:15 19:02:32
p10658
aV3304
p10659
aa(lp10660
V2014:04:17 07:43:15
p10661
aV3305
p10662
aa(lp10663
V2014:04:18 16:53:08
p10664
aV3307
p10665
aa(lp10666
V2014:04:19 09:46:54
p10667
aV3306
p10668
aa(lp10669
V2014:04:19 13:28:03
p10670
aV3309
p10671
aa(lp10672
V2014:04:19 13:28:16
p10673
aV3310
p10674
aa(lp10675
V2014:04:19 18:57:55
p10676
aV3308
p10677
aa(lp10678
V2014:04:20 10:48:49
p10679
aV3329
p10680
aa(lp10681
V2014:04:20 10:49:10
p10682
aV3326
p10683
aa(lp10684
V2014:04:20 11:08:51
p10685
aV3324
p10686
aa(lp10687
V2014:04:20 11:09:03
p10688
aV3327
p10689
aa(lp10690
V2014:04:20 11:16:28
p10691
aV3323
p10692
aa(lp10693
V2014:04:20 11:16:43
p10694
aV3328
p10695
aa(lp10696
V2014:04:20 13:38:23
p10697
aV3311
p10698
aa(lp10699
V2014:04:21 19:30:44
p10700
aV3312
p10701
aa(lp10702
V2014:04:22 08:47:59
p10703
aV3313
p10704
aa(lp10705
V2014:04:22 08:59:03
p10706
aV3314
p10707
aa(lp10708
V2014:04:24 18:14:04
p10709
aV3315
p10710
aa(lp10711
V2014:04:24 18:14:42
p10712
aV3316
p10713
aa(lp10714
V2014:04:27 11:03:26
p10715
aV3322
p10716
aa(lp10717
V2014:04:27 11:58:57
p10718
aV3325
p10719
aa(lp10720
V2014:04:27 12:02:41
p10721
aV3318
p10722
aa(lp10723
V2014:04:27 12:08:04
p10724
aV3319
p10725
aa(lp10726
V2014:04:27 12:18:18
p10727
aV3320
p10728
aa(lp10729
V2014:04:27 12:45:13
p10730
aV3317
p10731
aa(lp10732
V2014:04:27 20:02:13
p10733
aV3321
p10734
aa(lp10735
V2014:04:30 08:43:26
p10736
aV3330
p10737
aa(lp10738
V2014:05:02 07:57:38
p10739
aV3331
p10740
aa(lp10741
V2014:05:02 19:18:04
p10742
aV3332
p10743
aa(lp10744
V2014:05:03 09:20:55
p10745
aV3333
p10746
aa(lp10747
V2014:05:03 10:31:06
p10748
aV3334
p10749
aa(lp10750
V2014:05:03 14:47:33
p10751
aV3336
p10752
aa(lp10753
V2014:05:04 10:32:00
p10754
aV3335
p10755
aa(lp10756
V2014:05:04 12:43:12
p10757
aV3337
p10758
aa(lp10759
V2014:05:04 13:56:04
p10760
aV3340
p10761
aa(lp10762
V2014:05:04 14:37:33
p10763
aV3338
p10764
aa(lp10765
V2014:05:04 14:42:43
p10766
aV3339
p10767
aa(lp10768
V2014:05:08 07:52:40
p10769
aV3341
p10770
aa(lp10771
V2014:05:09 07:40:27
p10772
aV3342
p10773
aa(lp10774
V2014:05:11 16:30:55
p10775
aV3343
p10776
aa(lp10777
V2014:05:11 16:31:06
p10778
aV3344
p10779
aa(lp10780
V2014:05:11 18:59:29
p10781
aV3360
p10782
aa(lp10783
V2014:05:11 19:00:59
p10784
aV3358
p10785
aa(lp10786
V2014:05:12 07:55:55
p10787
aV3345
p10788
aa(lp10789
V2014:05:12 08:02:17
p10790
aV3346
p10791
aa(lp10792
V2014:05:12 10:07:42
p10793
aV3347
p10794
aa(lp10795
V2014:05:13 16:55:56
p10796
aV3359
p10797
aa(lp10798
V2014:05:14 08:26:35
p10799
aV3348
p10800
aa(lp10801
V2014:05:14 08:31:25
p10802
aV3349
p10803
aa(lp10804
V2014:05:14 18:56:42
p10805
aV3352
p10806
aa(lp10807
V2014:05:14 18:56:47
p10808
aV3350
p10809
aa(lp10810
V2014:05:14 19:48:36
p10811
aV3351
p10812
aa(lp10813
V2014:05:16 18:41:14
p10814
aV3353
p10815
aa(lp10816
V2014:05:17 09:31:19
p10817
aV3354
p10818
aa(lp10819
V2014:05:18 09:19:44
p10820
aV3355
p10821
aa(lp10822
V2014:05:18 15:15:58
p10823
aV3356
p10824
aa(lp10825
V2014:05:18 18:33:21
p10826
aV3357
p10827
aa(lp10828
V2014:05:21 07:58:31
p10829
aV3361
p10830
aa(lp10831
V2014:05:22 05:32:51
p10832
aV3362
p10833
aa(lp10834
V2014:05:23 17:29:47
p10835
aV3363
p10836
aa(lp10837
V2014:05:24 08:33:57
p10838
aV3364
p10839
aa(lp10840
V2014:05:24 12:33:17
p10841
aV3365
p10842
aa(lp10843
V2014:05:24 12:38:44
p10844
aV3366
p10845
aa(lp10846
V2014:05:25 10:02:46
p10847
aV3367
p10848
aa(lp10849
V2014:05:25 11:28:47
p10850
aV3375
p10851
aa(lp10852
V2014:05:25 11:31:23
p10853
aV3374
p10854
aa(lp10855
V2014:05:25 11:31:37
p10856
aV3373
p10857
aa(lp10858
V2014:05:25 11:36:12
p10859
aV3372
p10860
aa(lp10861
V2014:05:25 12:19:01
p10862
aV3368
p10863
aa(lp10864
V2014:05:25 12:51:07
p10865
aV3369
p10866
aa(lp10867
V2014:05:25 12:51:57
p10868
aV3370
p10869
aa(lp10870
V2014:05:25 12:52:12
p10871
aV3371
p10872
aa(lp10873
V2014:05:26 07:51:03
p10874
aV3376
p10875
aa(lp10876
V2014:05:26 11:22:29
p10877
aV3379
p10878
aa(lp10879
V2014:05:26 13:24:59
p10880
aV3378
p10881
aa(lp10882
V2014:05:26 13:25:02
p10883
aV3377
p10884
aa(lp10885
V2014:05:28 08:55:34
p10886
aV3380
p10887
aa(lp10888
V2014:05:30 19:58:36
p10889
aV3381
p10890
aa(lp10891
V2014:05:31 09:42:35
p10892
aV3385
p10893
aa(lp10894
V2014:05:31 17:25:49
p10895
aV3384
p10896
aa(lp10897
V2014:05:31 17:31:59
p10898
aV3387
p10899
aa(lp10900
V2014:05:31 19:36:18
p10901
aV3382
p10902
aa(lp10903
V2014:05:31 19:38:51
p10904
aV3383
p10905
aa(lp10906
V2014:06:01 08:00:30
p10907
aV3386
p10908
aa(lp10909
V2014:06:04 08:04:08
p10910
aV3388
p10911
aa(lp10912
V2014:06:04 08:56:10
p10913
aV3389
p10914
aa(lp10915
V2014:06:05 08:09:25
p10916
aV3390
p10917
aa(lp10918
V2014:06:06 07:49:19
p10919
aV3391
p10920
aa(lp10921
V2014:06:07 11:10:40
p10922
aV3392
p10923
aa(lp10924
V2014:06:10 07:43:09
p10925
aV3393
p10926
aa(lp10927
V2014:06:10 08:03:26
p10928
aV3394
p10929
aa(lp10930
V2014:06:11 08:56:40
p10931
aV3395
p10932
aa(lp10933
V2014:06:11 18:26:41
p10934
aV3396
p10935
aa(lp10936
V2014:06:12 12:02:51
p10937
aV3397
p10938
aa(lp10939
V2014:06:13 14:46:15
p10940
aV3398
p10941
aa(lp10942
V2014:06:14 11:28:11
p10943
aV3400
p10944
aa(lp10945
V2014:06:15 10:30:23
p10946
aV3401
p10947
aa(lp10948
V2014:06:16 20:19:47
p10949
aV3399
p10950
aa(lp10951
V2014:06:17 08:45:55
p10952
aV3402
p10953
aa(lp10954
V2014:06:19 16:56:29
p10955
aV3404
p10956
aa(lp10957
V2014:06:20 08:41:54
p10958
aV3403
p10959
aa(lp10960
V2014:06:22 10:49:04
p10961
aV3407
p10962
aa(lp10963
V2014:06:22 16:34:26
p10964
aV3405
p10965
aa(lp10966
V2014:06:22 16:59:45
p10967
aV3406
p10968
aa(lp10969
V2014:06:23 07:35:31
p10970
aV3408
p10971
aa(lp10972
V2014:06:23 07:36:13
p10973
aV3409
p10974
aa(lp10975
V2014:06:25 15:24:06
p10976
aV3410
p10977
aa(lp10978
V2014:06:27 18:30:38
p10979
aV3411
p10980
aa(lp10981
V2014:06:28 09:51:33
p10982
aV3415
p10983
aa(lp10984
V2014:06:28 10:24:24
p10985
aV3414
p10986
aa(lp10987
V2014:06:28 11:30:17
p10988
aV3412
p10989
aa(lp10990
V2014:06:28 23:04:39
p10991
aV3413
p10992
aa(lp10993
V2014:06:29 12:22:53
p10994
aV3424
p10995
aa(lp10996
V2014:06:29 12:38:38
p10997
aV3425
p10998
aa(lp10999
V2014:06:29 12:58:13
p11000
aV3418
p11001
aa(lp11002
V2014:06:29 13:05:20
p11003
aV3419
p11004
aa(lp11005
V2014:06:29 13:49:45
p11006
aV3420
p11007
aa(lp11008
V2014:06:29 14:09:43
p11009
aV3421
p11010
aa(lp11011
V2014:06:29 15:10:30
p11012
aV3426
p11013
aa(lp11014
V2014:06:29 15:16:02
p11015
aV3427
p11016
aa(lp11017
V2014:06:29 15:16:14
p11018
aV3428
p11019
aa(lp11020
V2014:06:29 15:17:07
p11021
aV3429
p11022
aa(lp11023
V2014:06:29 15:18:07
p11024
aV3430
p11025
aa(lp11026
V2014:06:29 15:21:04
p11027
aV3431
p11028
aa(lp11029
V2014:06:29 15:24:46
p11030
aV3432
p11031
aa(lp11032
V2014:06:29 15:25:50
p11033
aV3433
p11034
aa(lp11035
V2014:06:29 15:27:18
p11036
aV3434
p11037
aa(lp11038
V2014:06:29 15:48:23
p11039
aV3435
p11040
aa(lp11041
V2014:06:29 15:51:01
p11042
aV3436
p11043
aa(lp11044
V2014:06:29 15:51:50
p11045
aV3437
p11046
aa(lp11047
V2014:06:29 15:52:02
p11048
aV3438
p11049
aa(lp11050
V2014:06:29 16:06:57
p11051
aV3422
p11052
aa(lp11053
V2014:06:29 16:17:29
p11054
aV3439
p11055
aa(lp11056
V2014:06:29 20:49:27
p11057
aV3423
p11058
aa(lp11059
V2014:06:30 08:43:05
p11060
aV3452
p11061
aa(lp11062
V2014:06:30 08:51:52
p11063
aV3453
p11064
aa(lp11065
V2014:06:30 09:05:55
p11066
aV3454
p11067
aa(lp11068
V2014:06:30 09:21:25
p11069
aV3440
p11070
aa(lp11071
V2014:06:30 09:38:56
p11072
aV3441
p11073
aa(lp11074
V2014:06:30 09:42:53
p11075
aV3442
p11076
aa(lp11077
V2014:06:30 09:47:47
p11078
aV3443
p11079
aa(lp11080
V2014:06:30 10:02:39
p11081
aV3455
p11082
aa(lp11083
V2014:06:30 10:04:59
p11084
aV3444
p11085
aa(lp11086
V2014:06:30 10:25:02
p11087
aV3445
p11088
aa(lp11089
V2014:06:30 10:29:00
p11090
aV3446
p11091
aa(lp11092
V2014:06:30 10:39:51
p11093
aV3456
p11094
aa(lp11095
V2014:06:30 10:41:00
p11096
aV3457
p11097
aa(lp11098
V2014:06:30 10:44:48
p11099
aV3447
p11100
aa(lp11101
V2014:06:30 11:16:21
p11102
aV3448
p11103
aa(lp11104
V2014:06:30 11:48:16
p11105
aV3449
p11106
aa(lp11107
V2014:06:30 14:19:27
p11108
aV3458
p11109
aa(lp11110
V2014:06:30 14:49:54
p11111
aV3459
p11112
aa(lp11113
V2014:06:30 15:04:51
p11114
aV3460
p11115
aa(lp11116
V2014:06:30 15:14:53
p11117
aV3461
p11118
aa(lp11119
V2014:06:30 19:33:31
p11120
aV3450
p11121
aa(lp11122
V2014:06:30 19:39:43
p11123
aV3451
p11124
aa(lp11125
V2014:07:01 09:29:42
p11126
aV3416
p11127
aa(lp11128
V2014:07:01 09:58:34
p11129
aV3463
p11130
aa(lp11131
V2014:07:01 10:32:25
p11132
aV3489
p11133
aa(lp11134
V2014:07:01 10:35:23
p11135
aV3490
p11136
aa(lp11137
V2014:07:01 12:52:23
p11138
aV3462
p11139
aa(lp11140
V2014:07:02 21:43:49
p11141
aV3417
p11142
aa(lp11143
V2014:07:03 10:43:41
p11144
aV3464
p11145
aa(lp11146
V2014:07:03 10:43:57
p11147
aV3465
p11148
aa(lp11149
V2014:07:03 11:04:17
p11150
aV3466
p11151
aa(lp11152
V2014:07:03 11:32:08
p11153
aV3467
p11154
aa(lp11155
V2014:07:03 11:33:03
p11156
aV3468
p11157
aa(lp11158
V2014:07:03 11:36:18
p11159
aV3469
p11160
aa(lp11161
V2014:07:03 11:48:57
p11162
aV3470
p11163
aa(lp11164
V2014:07:03 13:40:41
p11165
aV3471
p11166
aa(lp11167
V2014:07:03 13:57:21
p11168
aV3472
p11169
aa(lp11170
V2014:07:03 14:07:42
p11171
aV3473
p11172
aa(lp11173
V2014:07:03 14:51:35
p11174
aV3474
p11175
aa(lp11176
V2014:07:03 14:54:07
p11177
aV3475
p11178
aa(lp11179
V2014:07:03 15:46:19
p11180
aV3476
p11181
aa(lp11182
V2014:07:03 15:58:13
p11183
aV3477
p11184
aa(lp11185
V2014:07:05 13:40:54
p11186
aV3478
p11187
aa(lp11188
V2014:07:05 13:42:26
p11189
aV3479
p11190
aa(lp11191
V2014:07:05 13:43:15
p11192
aV3480
p11193
aa(lp11194
V2014:07:05 13:49:47
p11195
aV3483
p11196
aa(lp11197
V2014:07:06 11:16:19
p11198
aV3484
p11199
aa(lp11200
V2014:07:06 11:38:59
p11201
aV3485
p11202
aa(lp11203
V2014:07:06 12:04:02
p11204
aV3481
p11205
aa(lp11206
V2014:07:06 12:49:42
p11207
aV3486
p11208
aa(lp11209
V2014:07:06 12:50:17
p11210
aV3487
p11211
aa(lp11212
V2014:07:06 13:29:54
p11213
aV3482
p11214
aa(lp11215
V2014:07:06 15:07:14
p11216
aV3488
p11217
aa(lp11218
V2014:07:08 20:13:27
p11219
aV3491
p11220
aa(lp11221
V2014:07:09 00:57:54
p11222
aV3502
p11223
aa(lp11224
V2014:07:09 00:58:09
p11225
aV3503
p11226
aa(lp11227
V2014:07:09 00:58:14
p11228
aV3504
p11229
aa(lp11230
V2014:07:09 00:58:34
p11231
aV3505
p11232
aa(lp11233
V2014:07:09 00:58:38
p11234
aV3506
p11235
aa(lp11236
V2014:07:09 00:58:47
p11237
aV3507
p11238
aa(lp11239
V2014:07:09 00:59:04
p11240
aV3508
p11241
aa(lp11242
V2014:07:09 00:59:13
p11243
aV3509
p11244
aa(lp11245
V2014:07:09 00:59:16
p11246
aV3510
p11247
aa(lp11248
V2014:07:09 00:59:17
p11249
aV3511
p11250
aa(lp11251
V2014:07:09 00:59:19
p11252
aV3512
p11253
aa(lp11254
V2014:07:09 00:59:23
p11255
aV3513
p11256
aa(lp11257
V2014:07:09 11:14:43
p11258
aV3492
p11259
aa(lp11260
V2014:07:10 10:55:18
p11261
aV3493
p11262
aa(lp11263
V2014:07:12 09:48:20
p11264
aV3494
p11265
aa(lp11266
V2014:07:12 13:26:34
p11267
aV3495
p11268
aa(lp11269
V2014:07:13 09:24:43
p11270
aV3496
p11271
aa(lp11272
V2014:07:16 02:56:31
p11273
aV3497
p11274
aa(lp11275
V2014:07:16 02:56:33
p11276
aV3498
p11277
aa(lp11278
V2014:07:16 11:12:53
p11279
aV3499
p11280
aa(lp11281
V2014:07:17 10:09:44
p11282
aV3500
p11283
aa(lp11284
V2014:07:21 20:45:06
p11285
aV3501
p11286
aa(lp11287
V2014:07:23 11:30:10
p11288
aV3514
p11289
aa(lp11290
V2014:07:25 17:52:31
p11291
aV3518
p11292
aa(lp11293
V2014:07:25 17:55:28
p11294
aV3519
p11295
aa(lp11296
V2014:07:25 19:21:38
p11297
aV3515
p11298
aa(lp11299
V2014:07:25 19:21:39
p11300
aV3516
p11301
aa(lp11302
V2014:07:25 22:37:55
p11303
aV3517
p11304
aa(lp11305
V2014:07:26 10:37:38
p11306
aV3520
p11307
aa(lp11308
V2014:07:26 14:37:22
p11309
aV3541
p11310
aa(lp11311
V2014:07:26 17:21:41
p11312
aV3521
p11313
aa(lp11314
V2014:07:27 14:11:49
p11315
aV3522
p11316
aa(lp11317
V2014:07:27 16:07:09
p11318
aV3524
p11319
aa(lp11320
V2014:07:27 20:22:53
p11321
aV3523
p11322
aa(lp11323
V2014:07:28 10:51:27
p11324
aV3525
p11325
aa(lp11326
V2014:07:28 10:59:37
p11327
aV3530
p11328
aa(lp11329
V2014:07:28 16:06:30
p11330
aV3531
p11331
aa(lp11332
V2014:07:29 10:24:44
p11333
aV3532
p11334
aa(lp11335
V2014:07:29 11:35:42
p11336
aV3526
p11337
aa(lp11338
V2014:07:29 13:22:27
p11339
aV3527
p11340
aa(lp11341
V2014:07:29 13:23:16
p11342
aV3528
p11343
aa(lp11344
V2014:07:29 13:24:31
p11345
aV3529
p11346
aa(lp11347
V2014:07:29 13:26:54
p11348
aV3533
p11349
aa(lp11350
V2014:07:29 13:30:47
p11351
aV3534
p11352
aa(lp11353
V2014:07:30 09:01:55
p11354
aV3535
p11355
aa(lp11356
V2014:07:30 09:27:18
p11357
aV3536
p11358
aa(lp11359
V2014:07:31 09:33:24
p11360
aV3537
p11361
aa(lp11362
V2014:07:31 09:33:51
p11363
aV3538
p11364
aa(lp11365
V2014:07:31 12:01:42
p11366
aV3540
p11367
aa(lp11368
V2014:07:31 12:16:58
p11369
aV3539
p11370
aa(lp11371
V2014:08:04 07:17:05
p11372
aV3543
p11373
aa(lp11374
V2014:08:04 08:44:50
p11375
aV3542
p11376
aa(lp11377
V2014:08:07 21:02:44
p11378
aV3544
p11379
aa(lp11380
V2014:08:09 18:22:34
p11381
aV3545
p11382
aa(lp11383
V2014:08:10 11:18:38
p11384
aV3546
p11385
aa(lp11386
V2014:08:10 12:38:00
p11387
aV3547
p11388
aa(lp11389
V2014:08:12 07:45:51
p11390
aV3548
p11391
aa(lp11392
V2014:08:12 15:29:02
p11393
aV3549
p11394
aa(lp11395
V2014:08:14 16:31:11
p11396
aV3550
p11397
aa(lp11398
V2014:08:16 11:07:08
p11399
aV3552
p11400
aa(lp11401
V2014:08:16 11:59:08
p11402
aV3551
p11403
aa(lp11404
V2014:08:17 10:46:27
p11405
aV3553
p11406
aa(lp11407
V2014:08:17 11:13:01
p11408
aV3554
p11409
aa(lp11410
V2014:08:18 22:01:39
p11411
aV3555
p11412
aa(lp11413
V2014:08:19 14:58:01
p11414
aV3556
p11415
aa(lp11416
V2014:08:19 15:52:37
p11417
aV3557
p11418
aa(lp11419
V2014:08:20 16:02:19
p11420
aV3558
p11421
aa(lp11422
V2014:08:21 08:16:06
p11423
aV3559
p11424
aa(lp11425
V2014:08:21 08:54:54
p11426
aV3561
p11427
aa(lp11428
V2014:08:21 08:55:57
p11429
aV3560
p11430
aa(lp11431
V2014:08:24 09:52:18
p11432
aV3562
p11433
aa(lp11434
V2014:08:26 08:20:54
p11435
aV3563
p11436
aa(lp11437
V2014:08:26 08:21:05
p11438
aV3564
p11439
aa(lp11440
V2014:08:27 07:45:44
p11441
aV3565
p11442
aa(lp11443
V2014:08:27 07:47:07
p11444
aV3566
p11445
aa(lp11446
V2014:08:29 12:21:26
p11447
aV3567
p11448
aa(lp11449
V2014:08:30 11:13:20
p11450
aV3583
p11451
aa(lp11452
V2014:08:30 12:35:52
p11453
aV3582
p11454
aa(lp11455
V2014:08:31 09:30:11
p11456
aV3581
p11457
aa(lp11458
V2014:08:31 11:57:43
p11459
aV3572
p11460
aa(lp11461
V2014:08:31 12:00:07
p11462
aV3571
p11463
aa(lp11464
V2014:08:31 12:20:26
p11465
aV3580
p11466
aa(lp11467
V2014:08:31 12:23:06
p11468
aV3579
p11469
aa(lp11470
V2014:08:31 12:28:23
p11471
aV3578
p11472
aa(lp11473
V2014:08:31 12:29:49
p11474
aV3577
p11475
aa(lp11476
V2014:08:31 12:30:55
p11477
aV3576
p11478
aa(lp11479
V2014:08:31 12:50:29
p11480
aV3570
p11481
aa(lp11482
V2014:08:31 12:50:50
p11483
aV3569
p11484
aa(lp11485
V2014:08:31 12:57:16
p11486
aV3568
p11487
aa(lp11488
V2014:08:31 13:06:31
p11489
aV3584
p11490
aa(lp11491
V2014:08:31 13:29:13
p11492
aV3575
p11493
aa(lp11494
V2014:09:01 07:51:34
p11495
aV3574
p11496
aa(lp11497
V2014:09:01 07:53:40
p11498
aV3573
p11499
aa(lp11500
V2014:09:01 17:41:14
p11501
aV3586
p11502
aa(lp11503
V2014:09:02 07:59:09
p11504
aV3585
p11505
aa(lp11506
V2014:09:02 08:44:22
p11507
aV3587
p11508
aa(lp11509
V2014:09:03 07:39:41
p11510
aV3588
p11511
aa(lp11512
V2014:09:06 19:47:14
p11513
aV3589
p11514
aa(lp11515
V2014:09:07 08:30:33
p11516
aV3590
p11517
aa(lp11518
V2014:09:07 11:01:47
p11519
aV3599
p11520
aa(lp11521
V2014:09:07 11:06:34
p11522
aV3598
p11523
aa(lp11524
V2014:09:07 11:31:59
p11525
aV3597
p11526
aa(lp11527
V2014:09:07 11:36:17
p11528
aV3596
p11529
aa(lp11530
V2014:09:07 11:46:53
p11531
aV3591
p11532
aa(lp11533
V2014:09:07 13:10:37
p11534
aV3592
p11535
aa(lp11536
V2014:09:09 08:28:20
p11537
aV3593
p11538
aa(lp11539
V2014:09:09 08:48:26
p11540
aV3594
p11541
aa(lp11542
V2014:09:10 08:54:52
p11543
aV3595
p11544
aa(lp11545
V2014:09:13 15:21:06
p11546
aV3601
p11547
aa(lp11548
V2014:09:13 15:42:14
p11549
aV3603
p11550
aa(lp11551
V2014:09:14 08:30:45
p11552
aV3602
p11553
aa(lp11554
V2014:09:14 10:09:58
p11555
aV3600
p11556
aa(lp11557
V2014:09:14 15:23:39
p11558
aV3604
p11559
aa(lp11560
V2014:09:18 15:28:44
p11561
aV3609
p11562
aa(lp11563
V2014:09:20 15:30:32
p11564
aV3605
p11565
aa(lp11566
V2014:09:20 20:52:18
p11567
aV3606
p11568
aa(lp11569
V2014:09:22 04:37:13
p11570
aV3607
p11571
aa(lp11572
V2014:09:22 15:45:06
p11573
aV3608
p11574
aa(lp11575
V2014:09:23 19:06:22
p11576
aV3610
p11577
aa(lp11578
V2014:09:28 22:36:58
p11579
aV3611
p11580
aa(lp11581
V2014:09:28 22:37:12
p11582
aV3612
p11583
aa(lp11584
V2014:09:30 04:16:09
p11585
aV3613
p11586
aa(lp11587
V2014:10:02 00:33:34
p11588
aV3614
p11589
aa(lp11590
V2014:10:03 15:17:50
p11591
aV3615
p11592
aa(lp11593
V2014:10:04 04:19:29
p11594
aV3616
p11595
aa(lp11596
V2014:10:04 15:18:21
p11597
aV3618
p11598
aa(lp11599
V2014:10:04 21:24:46
p11600
aV3617
p11601
aa(lp11602
V2014:10:06 02:29:34
p11603
aV3619
p11604
aa(lp11605
V2014:10:06 21:01:11
p11606
aV3620
p11607
aa(lp11608
V2014:10:06 21:01:12
p11609
aV3621
p11610
aa(lp11611
V2014:10:07 05:26:09
p11612
aV3622
p11613
aa(lp11614
V2014:10:07 17:10:50
p11615
aV3623
p11616
aa(lp11617
V2014:10:07 17:10:51
p11618
aV3624
p11619
aa(lp11620
V2014:10:07 17:10:53
p11621
aV3625
p11622
aa(lp11623
V2014:10:11 17:07:42
p11624
aV3626
p11625
aa(lp11626
V2014:10:11 17:07:44
p11627
aV3627
p11628
aa(lp11629
V2014:10:12 10:01:56
p11630
aV3628
p11631
aa(lp11632
V2014:10:12 10:08:46
p11633
aV3630
p11634
aa(lp11635
V2014:10:12 12:02:29
p11636
aV3632
p11637
aa(lp11638
V2014:10:12 13:01:41
p11639
aV3635
p11640
aa(lp11641
V2014:10:12 13:53:20
p11642
aV3636
p11643
aa(lp11644
V2014:10:13 05:29:16
p11645
aV3629
p11646
aa(lp11647
V2014:10:13 05:29:18
p11648
aV3631
p11649
aa(lp11650
V2014:10:13 05:29:41
p11651
aV3633
p11652
aa(lp11653
V2014:10:13 05:29:42
p11654
aV3634
p11655
aa(lp11656
V2014:10:13 05:29:45
p11657
aV3637
p11658
aa(lp11659
V2014:10:14 17:37:15
p11660
aV3638
p11661
aa(lp11662
V2014:10:16 15:14:23
p11663
aV3640
p11664
aa(lp11665
V2014:10:16 15:42:20
p11666
aV3641
p11667
aa(lp11668
V2014:10:16 18:27:04
p11669
aV3639
p11670
aa(lp11671
V2014:10:18 11:38:51
p11672
aV3643
p11673
aa(lp11674
V2014:10:18 13:42:43
p11675
aV3645
p11676
aa(lp11677
V2014:10:18 14:59:50
p11678
aV3647
p11679
aa(lp11680
V2014:10:18 21:01:14
p11681
aV3642
p11682
aa(lp11683
V2014:10:18 21:01:16
p11684
aV3644
p11685
aa(lp11686
V2014:10:18 21:07:09
p11687
aV3646
p11688
aa(lp11689
V2014:10:19 14:06:36
p11690
aV3650
p11691
aa(lp11692
V2014:10:19 15:59:16
p11693
aV3649
p11694
aa(lp11695
V2014:10:20 09:12:17
p11696
aV3648
p11697
aa(lp11698
V2014:10:20 14:36:43
p11699
aV3652
p11700
aa(lp11701
V2014:10:20 18:05:07
p11702
aV3653
p11703
aa(lp11704
V2014:10:21 16:07:17
p11705
aV3651
p11706
aa(lp11707
V2014:10:25 18:19:04
p11708
aV3735
p11709
aa(lp11710
V2014:10:26 09:00:07
p11711
aV3736
p11712
aa(lp11713
V2014:10:26 09:50:09
p11714
aV3737
p11715
aa(lp11716
V2014:10:26 09:56:25
p11717
aV3738
p11718
aa(lp11719
V2014:10:26 10:39:42
p11720
aV3739
p11721
aa(lp11722
V2014:10:26 11:52:24
p11723
aV3740
p11724
aa(lp11725
V2014:10:26 12:20:11
p11726
aV3741
p11727
aa(lp11728
V2014:10:26 12:33:04
p11729
aV3742
p11730
aa(lp11731
V2014:10:26 12:54:27
p11732
aV3743
p11733
aa(lp11734
V2014:10:26 18:48:47
p11735
aV3744
p11736
aa(lp11737
V2014:10:30 17:36:26
p11738
aV3745
p11739
aa(lp11740
V2014:10:31 08:19:08
p11741
aV3748
p11742
aa(lp11743
V2014:10:31 18:11:51
p11744
aV3746
p11745
aa(lp11746
V2014:10:31 18:22:36
p11747
aV3747
p11748
aa(lp11749
V2014:11:01 09:35:50
p11750
aV3749
p11751
aa(lp11752
V2014:11:02 11:02:49
p11753
aV3750
p11754
aa(lp11755
V2014:11:02 16:33:56
p11756
aV3751
p11757
aa(lp11758
V2014:11:03 19:04:25
p11759
aV3752
p11760
aa(lp11761
V2014:11:03 19:53:30
p11762
aV3754
p11763
aa(lp11764
V2014:11:04 08:39:25
p11765
aV3753
p11766
aa.